---
triple:          'arm64-apple-darwin'
binary-path:     Map_public_test.exe
relocations:
  - { offsetInCU: 0x5E, offset: 0x5E, size: 0x8, addend: 0x0, symName: __ZL24register_map_public_test, symObjAddr: 0x824C8, symBinAddr: 0x100018010, symSize: 0x0 }
  - { offsetInCU: 0xABAD, offset: 0xABAD, size: 0x8, addend: 0x0, symName: __ZNSt3__124__put_character_sequenceB7v160006IcNS_11char_traitsIcEEEERNS_13basic_ostreamIT_T0_EES7_PKS4_m, symObjAddr: 0xDA10, symBinAddr: 0x100010584, symSize: 0x1EC }
  - { offsetInCU: 0xBB02, offset: 0xBB02, size: 0x8, addend: 0x0, symName: __ZNSt3__1lsB7v160006IcNS_11char_traitsIcEENS_9allocatorIcEEEERNS_13basic_ostreamIT_T0_EES9_RKNS_12basic_stringIS6_S7_T1_EE, symObjAddr: 0x4A4, symBinAddr: 0x100003018, symSize: 0x4C }
  - { offsetInCU: 0xBB5A, offset: 0xBB5A, size: 0x8, addend: 0x0, symName: __ZNSt3__1lsB7v160006INS_11char_traitsIcEEEERNS_13basic_ostreamIcT_EES6_PKc, symObjAddr: 0x4F0, symBinAddr: 0x100003064, symSize: 0x48 }
  - { offsetInCU: 0xBBA0, offset: 0xBBA0, size: 0x8, addend: 0x0, symName: __ZNSt3__14endlB7v160006IcNS_11char_traitsIcEEEERNS_13basic_ostreamIT_T0_EES7_, symObjAddr: 0x564, symBinAddr: 0x1000030D8, symSize: 0x58 }
  - { offsetInCU: 0xBF23, offset: 0xBF23, size: 0x8, addend: 0x0, symName: __ZNSt3__1lsB7v160006INS_11char_traitsIcEEEERNS_13basic_ostreamIcT_EES6_c, symObjAddr: 0x7A8, symBinAddr: 0x10000331C, symSize: 0x34 }
  - { offsetInCU: 0xBF74, offset: 0xBF74, size: 0x8, addend: 0x0, symName: __ZNSt3__1neB7v160006IPNS_12basic_stringIcNS_11char_traitsIcEENS_9allocatorIcEEEEEEbRKNS_11__wrap_iterIT_EESC_, symObjAddr: 0x18A4, symBinAddr: 0x100004418, symSize: 0x34 }
  - { offsetInCU: 0xBFB7, offset: 0xBFB7, size: 0x8, addend: 0x0, symName: __ZNSt3__1eqB7v160006ERKNS_14__map_iteratorINS_15__tree_iteratorINS_12__value_typeINS_12basic_stringIcNS_11char_traitsIcEENS_9allocatorIcEEEE8TestCaseEEPNS_11__tree_nodeISA_PvEElEEEESI_, symObjAddr: 0x18F0, symBinAddr: 0x100004464, symSize: 0x30 }
  - { offsetInCU: 0xBFF4, offset: 0xBFF4, size: 0x8, addend: 0x0, symName: __ZNSt3__13endB7v160006INS_3mapINS_12basic_stringIcNS_11char_traitsIcEENS_9allocatorIcEEEE8TestCaseNS_4lessIS7_EENS5_INS_4pairIKS7_S8_EEEEEEEEDTcldtfp_3endEERT_, symObjAddr: 0x1960, symBinAddr: 0x1000044D4, symSize: 0x2C }
  - { offsetInCU: 0xC029, offset: 0xC029, size: 0x8, addend: 0x0, symName: __ZNSt3__1plB7v160006IcNS_11char_traitsIcEENS_9allocatorIcEEEENS_12basic_stringIT_T0_T1_EEOS9_PKS6_, symObjAddr: 0x198C, symBinAddr: 0x100004500, symSize: 0x40 }
  - { offsetInCU: 0xC081, offset: 0xC081, size: 0x8, addend: 0x0, symName: '__ZNSt3__18count_ifB7v160006INS_14__map_iteratorINS_15__tree_iteratorINS_12__value_typeINS_12basic_stringIcNS_11char_traitsIcEENS_9allocatorIcEEEE8TestCaseEEPNS_11__tree_nodeISB_PvEElEEEEZN9TestSuite9run_testsEiPPcE3$_0EENS_15iterator_traitsIT_E15difference_typeESN_SN_T0_', symObjAddr: 0x1A58, symBinAddr: 0x1000045CC, symSize: 0xC4 }
  - { offsetInCU: 0xC0E9, offset: 0xC0E9, size: 0x8, addend: 0x0, symName: '__ZNSt3__18count_ifB7v160006INS_14__map_iteratorINS_15__tree_iteratorINS_12__value_typeINS_12basic_stringIcNS_11char_traitsIcEENS_9allocatorIcEEEE8TestCaseEEPNS_11__tree_nodeISB_PvEElEEEEZN9TestSuite9run_testsEiPPcE3$_1EENS_15iterator_traitsIT_E15difference_typeESN_SN_T0_', symObjAddr: 0x1B8C, symBinAddr: 0x100004700, symSize: 0xC4 }
  - { offsetInCU: 0xC151, offset: 0xC151, size: 0x8, addend: 0x0, symName: __ZNSt3__1eqB7v160006IcNS_11char_traitsIcEENS_9allocatorIcEEEEbPKT_RKNS_12basic_stringIS5_T0_T1_EE, symObjAddr: 0x1CA4, symBinAddr: 0x100004818, symSize: 0xAC }
  - { offsetInCU: 0xC1B8, offset: 0xC1B8, size: 0x8, addend: 0x0, symName: __ZNSt3__15flushB7v160006IcNS_11char_traitsIcEEEERNS_13basic_ostreamIT_T0_EES7_, symObjAddr: 0x1E90, symBinAddr: 0x100004A04, symSize: 0x28 }
  - { offsetInCU: 0xC1F8, offset: 0xC1F8, size: 0x8, addend: 0x0, symName: '__ZNSt3__19transformB7v160006INS_14__map_iteratorINS_15__tree_iteratorINS_12__value_typeINS_12basic_stringIcNS_11char_traitsIcEENS_9allocatorIcEEEE8TestCaseEEPNS_11__tree_nodeISB_PvEElEEEENS_20back_insert_iteratorINS_6vectorIS9_NS7_IS9_EEEEEEZN9TestSuite21get_test_names_to_runEiPPcE3$_2EET0_T_SS_SR_T1_', symObjAddr: 0x1FC8, symBinAddr: 0x100004B3C, symSize: 0x104 }
  - { offsetInCU: 0xC269, offset: 0xC269, size: 0x8, addend: 0x0, symName: __ZNSt3__15beginB7v160006INS_3mapINS_12basic_stringIcNS_11char_traitsIcEENS_9allocatorIcEEEE8TestCaseNS_4lessIS7_EENS5_INS_4pairIKS7_S8_EEEEEEEEDTcldtfp_5beginEERT_, symObjAddr: 0x20CC, symBinAddr: 0x100004C40, symSize: 0x2C }
  - { offsetInCU: 0xC29E, offset: 0xC29E, size: 0x8, addend: 0x0, symName: __ZNSt3__113back_inserterB7v160006INS_6vectorINS_12basic_stringIcNS_11char_traitsIcEENS_9allocatorIcEEEENS5_IS7_EEEEEENS_20back_insert_iteratorIT_EERSB_, symObjAddr: 0x20F8, symBinAddr: 0x100004C6C, symSize: 0x2C }
  - { offsetInCU: 0xC2D3, offset: 0xC2D3, size: 0x8, addend: 0x0, symName: __ZNSt3__1eqB7v160006IPNS_12basic_stringIcNS_11char_traitsIcEENS_9allocatorIcEEEEEEbRKNS_11__wrap_iterIT_EESC_, symObjAddr: 0x2FFC, symBinAddr: 0x100005B70, symSize: 0x48 }
  - { offsetInCU: 0xC349, offset: 0xC349, size: 0x8, addend: 0x0, symName: __ZNSt3__17launderB7v160006INS_4pairIKNS_12basic_stringIcNS_11char_traitsIcEENS_9allocatorIcEEEE8TestCaseEEEEPT_SC_, symObjAddr: 0x38DC, symBinAddr: 0x100006450, symSize: 0x24 }
  - { offsetInCU: 0xC380, offset: 0xC380, size: 0x8, addend: 0x0, symName: __ZNSt3__19__launderB7v160006INS_4pairIKNS_12basic_stringIcNS_11char_traitsIcEENS_9allocatorIcEEEE8TestCaseEEEEPT_SC_, symObjAddr: 0x3900, symBinAddr: 0x100006474, symSize: 0x14 }
  - { offsetInCU: 0xC3B7, offset: 0xC3B7, size: 0x8, addend: 0x0, symName: __ZNSt3__119__libcpp_deallocateB7v160006EPvmm, symObjAddr: 0x3958, symBinAddr: 0x1000064CC, symSize: 0x60 }
  - { offsetInCU: 0xC41C, offset: 0xC41C, size: 0x8, addend: 0x0, symName: __ZNSt3__124__is_overaligned_for_newB7v160006Em, symObjAddr: 0x39B8, symBinAddr: 0x10000652C, symSize: 0x20 }
  - { offsetInCU: 0xC44A, offset: 0xC44A, size: 0x8, addend: 0x0, symName: __ZNSt3__127__do_deallocate_handle_sizeB7v160006IJSt11align_val_tEEEvPvmDpT_, symObjAddr: 0x39D8, symBinAddr: 0x10000654C, symSize: 0x30 }
  - { offsetInCU: 0xC49D, offset: 0xC49D, size: 0x8, addend: 0x0, symName: __ZNSt3__127__do_deallocate_handle_sizeB7v160006IJEEEvPvmDpT_, symObjAddr: 0x3A08, symBinAddr: 0x10000657C, symSize: 0x28 }
  - { offsetInCU: 0xC4DB, offset: 0xC4DB, size: 0x8, addend: 0x0, symName: __ZNSt3__124__libcpp_operator_deleteB7v160006IJPvSt11align_val_tEEEvDpT_, symObjAddr: 0x3A30, symBinAddr: 0x1000065A4, symSize: 0x2C }
  - { offsetInCU: 0xC524, offset: 0xC524, size: 0x8, addend: 0x0, symName: __ZNSt3__124__libcpp_operator_deleteB7v160006IJPvEEEvDpT_, symObjAddr: 0x3A5C, symBinAddr: 0x1000065D0, symSize: 0x24 }
  - { offsetInCU: 0xC559, offset: 0xC559, size: 0x8, addend: 0x0, symName: __ZNSt3__1neB7v160006ERKNS_14__map_iteratorINS_15__tree_iteratorINS_12__value_typeINS_12basic_stringIcNS_11char_traitsIcEENS_9allocatorIcEEEE8TestCaseEEPNS_11__tree_nodeISA_PvEElEEEESI_, symObjAddr: 0x3AE4, symBinAddr: 0x100006658, symSize: 0x30 }
  - { offsetInCU: 0xC596, offset: 0xC596, size: 0x8, addend: 0x0, symName: __ZNSt3__1neB7v160006ERKNS_15__tree_iteratorINS_12__value_typeINS_12basic_stringIcNS_11char_traitsIcEENS_9allocatorIcEEEE8TestCaseEEPNS_11__tree_nodeIS9_PvEElEESG_, symObjAddr: 0x3B68, symBinAddr: 0x1000066DC, symSize: 0x34 }
  - { offsetInCU: 0xC5D3, offset: 0xC5D3, size: 0x8, addend: 0x0, symName: __ZNSt3__1eqB7v160006ERKNS_15__tree_iteratorINS_12__value_typeINS_12basic_stringIcNS_11char_traitsIcEENS_9allocatorIcEEEE8TestCaseEEPNS_11__tree_nodeIS9_PvEElEESG_, symObjAddr: 0x3B9C, symBinAddr: 0x100006710, symSize: 0x30 }
  - { offsetInCU: 0xC643, offset: 0xC643, size: 0x8, addend: 0x0, symName: __ZNSt3__116__tree_next_iterB7v160006IPNS_15__tree_end_nodeIPNS_16__tree_node_baseIPvEEEES5_EET_T0_, symObjAddr: 0x3C5C, symBinAddr: 0x1000067D0, symSize: 0x90 }
  - { offsetInCU: 0xC681, offset: 0xC681, size: 0x8, addend: 0x0, symName: __ZNSt3__110__tree_minB7v160006IPNS_16__tree_node_baseIPvEEEET_S5_, symObjAddr: 0x3CEC, symBinAddr: 0x100006860, symSize: 0x40 }
  - { offsetInCU: 0xC6B6, offset: 0xC6B6, size: 0x8, addend: 0x0, symName: __ZNSt3__120__tree_is_left_childB7v160006IPNS_16__tree_node_baseIPvEEEEbT_, symObjAddr: 0x3D2C, symBinAddr: 0x1000068A0, symSize: 0x2C }
  - { offsetInCU: 0xC6EB, offset: 0xC6EB, size: 0x8, addend: 0x0, symName: __ZNSt3__119__debug_db_insert_cB7v160006INS_12basic_stringIcNS_11char_traitsIcEENS_9allocatorIcEEEEEEvPT_, symObjAddr: 0x3F88, symBinAddr: 0x100006AFC, symSize: 0x10 }
  - { offsetInCU: 0xC71C, offset: 0xC71C, size: 0x8, addend: 0x0, symName: __ZNSt3__115__debug_db_swapB7v160006INS_12basic_stringIcNS_11char_traitsIcEENS_9allocatorIcEEEEEEvPT_S8_, symObjAddr: 0x3FD0, symBinAddr: 0x100006B44, symSize: 0x14 }
  - { offsetInCU: 0xC77F, offset: 0xC77F, size: 0x8, addend: 0x0, symName: __ZNSt3__1ltB7v160006IcNS_11char_traitsIcEENS_9allocatorIcEEEEbRKNS_12basic_stringIT_T0_T1_EESB_, symObjAddr: 0x49C0, symBinAddr: 0x100007534, symSize: 0x38 }
  - { offsetInCU: 0xC7FB, offset: 0xC7FB, size: 0x8, addend: 0x0, symName: __ZNSt3__13minB7v160006ImEERKT_S3_S3_, symObjAddr: 0x4CD8, symBinAddr: 0x10000784C, symSize: 0x2C }
  - { offsetInCU: 0xC83E, offset: 0xC83E, size: 0x8, addend: 0x0, symName: __ZNSt3__118__constexpr_memcmpB7v160006IcEEiPKT_S3_m, symObjAddr: 0x4D60, symBinAddr: 0x1000078D4, symSize: 0x34 }
  - { offsetInCU: 0xC88F, offset: 0xC88F, size: 0x8, addend: 0x0, symName: __ZNSt3__112__to_addressB7v160006IKcEEPT_S3_, symObjAddr: 0x4D94, symBinAddr: 0x100007908, symSize: 0x14 }
  - { offsetInCU: 0xC8F7, offset: 0xC8F7, size: 0x8, addend: 0x0, symName: __ZNSt3__13minB7v160006ImNS_6__lessImmEEEERKT_S5_S5_T0_, symObjAddr: 0x4E60, symBinAddr: 0x1000079D4, symSize: 0x54 }
  - { offsetInCU: 0xC98C, offset: 0xC98C, size: 0x8, addend: 0x0, symName: __ZNSt3__17launderB7v160006IKNS_4pairIKNS_12basic_stringIcNS_11char_traitsIcEENS_9allocatorIcEEEE8TestCaseEEEEPT_SD_, symObjAddr: 0x4F74, symBinAddr: 0x100007AE8, symSize: 0x24 }
  - { offsetInCU: 0xC9C3, offset: 0xC9C3, size: 0x8, addend: 0x0, symName: __ZNSt3__19__launderB7v160006IKNS_4pairIKNS_12basic_stringIcNS_11char_traitsIcEENS_9allocatorIcEEEE8TestCaseEEEEPT_SD_, symObjAddr: 0x4F98, symBinAddr: 0x100007B0C, symSize: 0x14 }
  - { offsetInCU: 0xCA18, offset: 0xCA18, size: 0x8, addend: 0x0, symName: __ZNSt3__117__libcpp_allocateB7v160006Emm, symObjAddr: 0x5190, symBinAddr: 0x100007D04, symSize: 0x60 }
  - { offsetInCU: 0xCA72, offset: 0xCA72, size: 0x8, addend: 0x0, symName: __ZNSt3__121__libcpp_operator_newB7v160006IJmSt11align_val_tEEEPvDpT_, symObjAddr: 0x5208, symBinAddr: 0x100007D7C, symSize: 0x2C }
  - { offsetInCU: 0xCABF, offset: 0xCABF, size: 0x8, addend: 0x0, symName: __ZNSt3__121__libcpp_operator_newB7v160006IJmEEEPvDpT_, symObjAddr: 0x5234, symBinAddr: 0x100007DA8, symSize: 0x24 }
  - { offsetInCU: 0xCAF8, offset: 0xCAF8, size: 0x8, addend: 0x0, symName: __ZNSt3__127__tree_balance_after_insertB7v160006IPNS_16__tree_node_baseIPvEEEEvT_S5_, symObjAddr: 0x5560, symBinAddr: 0x1000080D4, symSize: 0x27C }
  - { offsetInCU: 0xCB74, offset: 0xCB74, size: 0x8, addend: 0x0, symName: __ZNSt3__118__tree_left_rotateB7v160006IPNS_16__tree_node_baseIPvEEEEvT_, symObjAddr: 0x5804, symBinAddr: 0x100008378, symSize: 0xD8 }
  - { offsetInCU: 0xCBB6, offset: 0xCBB6, size: 0x8, addend: 0x0, symName: __ZNSt3__119__tree_right_rotateB7v160006IPNS_16__tree_node_baseIPvEEEEvT_, symObjAddr: 0x58DC, symBinAddr: 0x100008450, symSize: 0xCC }
  - { offsetInCU: 0xCE14, offset: 0xCE14, size: 0x8, addend: 0x0, symName: __ZNSt3__122__make_exception_guardB7v160006INS_6vectorINS_12basic_stringIcNS_11char_traitsIcEENS_9allocatorIcEEEENS5_IS7_EEE16__destroy_vectorEEENS_28__exception_guard_exceptionsIT_EESC_, symObjAddr: 0x7C74, symBinAddr: 0x10000A7E8, symSize: 0x40 }
  - { offsetInCU: 0xCE49, offset: 0xCE49, size: 0x8, addend: 0x0, symName: __ZNSt3__119__debug_db_insert_cB7v160006INS_6vectorINS_12basic_stringIcNS_11char_traitsIcEENS_9allocatorIcEEEENS5_IS7_EEEEEEvPT_, symObjAddr: 0x7CE8, symBinAddr: 0x10000A85C, symSize: 0x10 }
  - { offsetInCU: 0xCE7A, offset: 0xCE7A, size: 0x8, addend: 0x0, symName: __ZNSt3__119__allocate_at_leastB7v160006INS_9allocatorINS_12basic_stringIcNS_11char_traitsIcEENS1_IcEEEEEEEENS_19__allocation_resultINS_16allocator_traitsIT_E7pointerEEERSA_m, symObjAddr: 0x8094, symBinAddr: 0x10000AC08, symSize: 0x40 }
  - { offsetInCU: 0xD0A7, offset: 0xD0A7, size: 0x8, addend: 0x0, symName: __ZNSt3__120__throw_length_errorB7v160006EPKc, symObjAddr: 0x82A4, symBinAddr: 0x10000AE18, symSize: 0x64 }
  - { offsetInCU: 0xD0CF, offset: 0xD0CF, size: 0x8, addend: 0x0, symName: __ZNSt3__112__to_addressB7v160006INS_12basic_stringIcNS_11char_traitsIcEENS_9allocatorIcEEEEEEPT_S8_, symObjAddr: 0x84DC, symBinAddr: 0x10000B050, symSize: 0x14 }
  - { offsetInCU: 0xD104, offset: 0xD104, size: 0x8, addend: 0x0, symName: __ZNSt3__130__uninitialized_allocator_copyB7v160006INS_9allocatorINS_12basic_stringIcNS_11char_traitsIcEENS1_IcEEEEEEPKS6_S9_PS6_EET2_RT_T0_T1_SB_, symObjAddr: 0x858C, symBinAddr: 0x10000B100, symSize: 0xF4 }
  - { offsetInCU: 0xD1A2, offset: 0xD1A2, size: 0x8, addend: 0x0, symName: __ZNSt3__122__make_exception_guardB7v160006INS_29_AllocatorDestroyRangeReverseINS_9allocatorINS_12basic_stringIcNS_11char_traitsIcEENS2_IcEEEEEEPS7_EEEENS_28__exception_guard_exceptionsIT_EESC_, symObjAddr: 0x86F8, symBinAddr: 0x10000B26C, symSize: 0x4C }
  - { offsetInCU: 0xD1D8, offset: 0xD1D8, size: 0x8, addend: 0x0, symName: __ZNSt3__119__allocator_destroyB7v160006INS_9allocatorINS_12basic_stringIcNS_11char_traitsIcEENS1_IcEEEEEENS_16reverse_iteratorIPS6_EESA_EEvRT_T0_T1_, symObjAddr: 0x8988, symBinAddr: 0x10000B4FC, symSize: 0x70 }
  - { offsetInCU: 0xD23B, offset: 0xD23B, size: 0x8, addend: 0x0, symName: __ZNSt3__1neB7v160006IPNS_12basic_stringIcNS_11char_traitsIcEENS_9allocatorIcEEEES7_EEbRKNS_16reverse_iteratorIT_EERKNS8_IT0_EE, symObjAddr: 0x8A2C, symBinAddr: 0x10000B5A0, symSize: 0x48 }
  - { offsetInCU: 0xD287, offset: 0xD287, size: 0x8, addend: 0x0, symName: __ZNSt3__112__to_addressB7v160006INS_16reverse_iteratorIPNS_12basic_stringIcNS_11char_traitsIcEENS_9allocatorIcEEEEEEvEENS_5decayIDTclsr19__to_address_helperIT_EE6__callclsr3stdE7declvalIRKSB_EEEEE4typeESD_, symObjAddr: 0x8AA0, symBinAddr: 0x10000B614, symSize: 0x24 }
  - { offsetInCU: 0xD2E6, offset: 0xD2E6, size: 0x8, addend: 0x0, symName: __ZNSt3__118__debug_db_erase_cB7v160006INS_6vectorINS_12basic_stringIcNS_11char_traitsIcEENS_9allocatorIcEEEENS5_IS7_EEEEEEvPT_, symObjAddr: 0x8DB0, symBinAddr: 0x10000B924, symSize: 0x10 }
  - { offsetInCU: 0xD317, offset: 0xD317, size: 0x8, addend: 0x0, symName: __ZNSt3__122__make_exception_guardB7v160006INS_6vectorIdNS_9allocatorIdEEE16__destroy_vectorEEENS_28__exception_guard_exceptionsIT_EES7_, symObjAddr: 0x904C, symBinAddr: 0x10000BBC0, symSize: 0x40 }
  - { offsetInCU: 0xD34C, offset: 0xD34C, size: 0x8, addend: 0x0, symName: __ZNSt3__119__debug_db_insert_cB7v160006INS_6vectorIdNS_9allocatorIdEEEEEEvPT_, symObjAddr: 0x90C0, symBinAddr: 0x10000BC34, symSize: 0x10 }
  - { offsetInCU: 0xD37D, offset: 0xD37D, size: 0x8, addend: 0x0, symName: __ZNSt3__119__allocate_at_leastB7v160006INS_9allocatorIdEEEENS_19__allocation_resultINS_16allocator_traitsIT_E7pointerEEERS5_m, symObjAddr: 0x945C, symBinAddr: 0x10000BFD0, symSize: 0x40 }
  - { offsetInCU: 0xD3C0, offset: 0xD3C0, size: 0x8, addend: 0x0, symName: __ZNSt3__112__to_addressB7v160006IdEEPT_S2_, symObjAddr: 0x9780, symBinAddr: 0x10000C2F4, symSize: 0x14 }
  - { offsetInCU: 0xD3F5, offset: 0xD3F5, size: 0x8, addend: 0x0, symName: __ZNSt3__130__uninitialized_allocator_copyB7v160006INS_9allocatorIdEEddLPv0EEEPT0_RT_PKS4_S9_S5_, symObjAddr: 0x9830, symBinAddr: 0x10000C3A4, symSize: 0x38 }
  - { offsetInCU: 0xD46D, offset: 0xD46D, size: 0x8, addend: 0x0, symName: __ZNSt3__14copyB7v160006IPKdPdEET0_T_S5_S4_, symObjAddr: 0x98D8, symBinAddr: 0x10000C44C, symSize: 0x40 }
  - { offsetInCU: 0xD4C7, offset: 0xD4C7, size: 0x8, addend: 0x0, symName: __ZNSt3__16__copyB7v160006INS_17_ClassicAlgPolicyEPKdS3_PdEENS_4pairIT0_T2_EES6_T1_S7_, symObjAddr: 0x9918, symBinAddr: 0x10000C48C, symSize: 0x44 }
  - { offsetInCU: 0xD533, offset: 0xD533, size: 0x8, addend: 0x0, symName: __ZNSt3__123__dispatch_copy_or_moveB7v160006INS_17_ClassicAlgPolicyENS_11__copy_loopIS1_EENS_14__copy_trivialEPKdS6_PdEENS_4pairIT2_T4_EES9_T3_SA_, symObjAddr: 0x995C, symBinAddr: 0x10000C4D0, symSize: 0x44 }
  - { offsetInCU: 0xD5B1, offset: 0xD5B1, size: 0x8, addend: 0x0, symName: __ZNSt3__121__unwrap_and_dispatchB7v160006INS_10__overloadINS_11__copy_loopINS_17_ClassicAlgPolicyEEENS_14__copy_trivialEEEPKdS8_PdLi0EEENS_4pairIT0_T2_EESB_T1_SC_, symObjAddr: 0x99A0, symBinAddr: 0x10000C514, symSize: 0xB4 }
  - { offsetInCU: 0xD63F, offset: 0xD63F, size: 0x8, addend: 0x0, symName: __ZNSt3__114__unwrap_rangeB7v160006IPKdS2_EENS_4pairIT0_S4_EET_S6_, symObjAddr: 0x9A54, symBinAddr: 0x10000C5C8, symSize: 0x60 }
  - { offsetInCU: 0xD7D4, offset: 0xD7D4, size: 0x8, addend: 0x0, symName: __ZNSt3__113__unwrap_iterB7v160006IPdNS_18__unwrap_iter_implIS1_Lb1EEELi0EEEDTclsrT0_8__unwrapclsr3stdE7declvalIT_EEEES5_, symObjAddr: 0x9AFC, symBinAddr: 0x10000C670, symSize: 0x24 }
  - { offsetInCU: 0xD818, offset: 0xD818, size: 0x8, addend: 0x0, symName: __ZNSt3__19make_pairB7v160006IPKdPdEENS_4pairINS_18__unwrap_ref_decayIT_E4typeENS5_IT0_E4typeEEEOS6_OS9_, symObjAddr: 0x9B20, symBinAddr: 0x10000C694, symSize: 0x38 }
  - { offsetInCU: 0xD867, offset: 0xD867, size: 0x8, addend: 0x0, symName: __ZNSt3__114__rewrap_rangeB7v160006IPKdS2_EET_S3_T0_, symObjAddr: 0x9B58, symBinAddr: 0x10000C6CC, symSize: 0x2C }
  - { offsetInCU: 0xD8B3, offset: 0xD8B3, size: 0x8, addend: 0x0, symName: __ZNSt3__113__rewrap_iterB7v160006IPdS1_NS_18__unwrap_iter_implIS1_Lb1EEEEET_S4_T0_, symObjAddr: 0x9B84, symBinAddr: 0x10000C6F8, symSize: 0x3C }
  - { offsetInCU: 0xD908, offset: 0xD908, size: 0x8, addend: 0x0, symName: __ZNSt3__19make_pairB7v160006IPKdS2_EENS_4pairINS_18__unwrap_ref_decayIT_E4typeENS4_IT0_E4typeEEEOS5_OS8_, symObjAddr: 0x9BC0, symBinAddr: 0x10000C734, symSize: 0x38 }
  - { offsetInCU: 0xD957, offset: 0xD957, size: 0x8, addend: 0x0, symName: __ZNSt3__113__unwrap_iterB7v160006IPKdNS_18__unwrap_iter_implIS2_Lb1EEELi0EEEDTclsrT0_8__unwrapclsr3stdE7declvalIT_EEEES6_, symObjAddr: 0x9BF8, symBinAddr: 0x10000C76C, symSize: 0x24 }
  - { offsetInCU: 0xDAC2, offset: 0xDAC2, size: 0x8, addend: 0x0, symName: __ZNSt3__112__to_addressB7v160006IKdEEPT_S3_, symObjAddr: 0x9CB0, symBinAddr: 0x10000C824, symSize: 0x14 }
  - { offsetInCU: 0xDAF7, offset: 0xDAF7, size: 0x8, addend: 0x0, symName: __ZNSt3__119__copy_trivial_implB7v160006IKddEENS_4pairIPT_PT0_EES4_S4_S6_, symObjAddr: 0x9CC4, symBinAddr: 0x10000C838, symSize: 0x84 }
  - { offsetInCU: 0xDB5F, offset: 0xDB5F, size: 0x8, addend: 0x0, symName: __ZNSt3__19make_pairB7v160006IRPKdPdEENS_4pairINS_18__unwrap_ref_decayIT_E4typeENS6_IT0_E4typeEEEOS7_OSA_, symObjAddr: 0x9D48, symBinAddr: 0x10000C8BC, symSize: 0x38 }
  - { offsetInCU: 0xDC01, offset: 0xDC01, size: 0x8, addend: 0x0, symName: __ZNSt3__113__rewrap_iterB7v160006IPKdS2_NS_18__unwrap_iter_implIS2_Lb1EEEEET_S5_T0_, symObjAddr: 0x9E84, symBinAddr: 0x10000C9F8, symSize: 0x3C }
  - { offsetInCU: 0xDC56, offset: 0xDC56, size: 0x8, addend: 0x0, symName: __ZNSt3__118__debug_db_erase_cB7v160006INS_6vectorIdNS_9allocatorIdEEEEEEvPT_, symObjAddr: 0xA124, symBinAddr: 0x10000CC98, symSize: 0x10 }
  - { offsetInCU: 0xDC87, offset: 0xDC87, size: 0x8, addend: 0x0, symName: __ZNSt3__13maxB7v160006ImEERKT_S3_S3_, symObjAddr: 0xA7B4, symBinAddr: 0x10000D328, symSize: 0x2C }
  - { offsetInCU: 0xDCCA, offset: 0xDCCA, size: 0x8, addend: 0x0, symName: __ZNSt3__13maxB7v160006ImNS_6__lessImmEEEERKT_S5_S5_T0_, symObjAddr: 0xA7E0, symBinAddr: 0x10000D354, symSize: 0x54 }
  - { offsetInCU: 0xDD24, offset: 0xDD24, size: 0x8, addend: 0x0, symName: __ZNSt3__142__uninitialized_allocator_move_if_noexceptB7v160006INS_9allocatorINS_12basic_stringIcNS_11char_traitsIcEENS1_IcEEEEEENS_16reverse_iteratorIPS6_EESA_SA_EET2_RT_T0_T1_SB_, symObjAddr: 0xAA6C, symBinAddr: 0x10000D5E0, symSize: 0x11C }
  - { offsetInCU: 0xDDC4, offset: 0xDDC4, size: 0x8, addend: 0x0, symName: __ZNSt3__14swapB7v160006IPNS_12basic_stringIcNS_11char_traitsIcEENS_9allocatorIcEEEEEENS_9enable_ifIXaasr21is_move_constructibleIT_EE5valuesr18is_move_assignableIS9_EE5valueEvE4typeERS9_SC_, symObjAddr: 0xAB88, symBinAddr: 0x10000D6FC, symSize: 0x3C }
  - { offsetInCU: 0xDE15, offset: 0xDE15, size: 0x8, addend: 0x0, symName: __ZNSt3__125__debug_db_invalidate_allB7v160006INS_6vectorINS_12basic_stringIcNS_11char_traitsIcEENS_9allocatorIcEEEENS5_IS7_EEEEEEvPT_, symObjAddr: 0xABC4, symBinAddr: 0x10000D738, symSize: 0x10 }
  - { offsetInCU: 0xDE46, offset: 0xDE46, size: 0x8, addend: 0x0, symName: __ZNSt3__122__make_exception_guardB7v160006INS_29_AllocatorDestroyRangeReverseINS_9allocatorINS_12basic_stringIcNS_11char_traitsIcEENS2_IcEEEEEENS_16reverse_iteratorIPS7_EEEEEENS_28__exception_guard_exceptionsIT_EESE_, symObjAddr: 0xABD4, symBinAddr: 0x10000D748, symSize: 0x4C }
  - { offsetInCU: 0xDE7C, offset: 0xDE7C, size: 0x8, addend: 0x0, symName: __ZNSt3__119__allocator_destroyB7v160006INS_9allocatorINS_12basic_stringIcNS_11char_traitsIcEENS1_IcEEEEEENS_16reverse_iteratorINS8_IPS6_EEEESB_EEvRT_T0_T1_, symObjAddr: 0xAEB0, symBinAddr: 0x10000DA24, symSize: 0x70 }
  - { offsetInCU: 0xDEE1, offset: 0xDEE1, size: 0x8, addend: 0x0, symName: __ZNSt3__1neB7v160006INS_16reverse_iteratorIPNS_12basic_stringIcNS_11char_traitsIcEENS_9allocatorIcEEEEEES9_EEbRKNS1_IT_EERKNS1_IT0_EE, symObjAddr: 0xAF5C, symBinAddr: 0x10000DAD0, symSize: 0x60 }
  - { offsetInCU: 0xDF2D, offset: 0xDF2D, size: 0x8, addend: 0x0, symName: __ZNSt3__112__to_addressB7v160006INS_16reverse_iteratorINS1_IPNS_12basic_stringIcNS_11char_traitsIcEENS_9allocatorIcEEEEEEEEvEENS_5decayIDTclsr19__to_address_helperIT_EE6__callclsr3stdE7declvalIRKSC_EEEEE4typeESE_, symObjAddr: 0xAFBC, symBinAddr: 0x10000DB30, symSize: 0x24 }
  - { offsetInCU: 0xDF8C, offset: 0xDF8C, size: 0x8, addend: 0x0, symName: __ZNSt3__142__uninitialized_allocator_move_if_noexceptB7v160006INS_9allocatorIdEENS_16reverse_iteratorIPdEES5_dvEET1_RT_T0_S9_S6_, symObjAddr: 0xB928, symBinAddr: 0x10000E49C, symSize: 0x78 }
  - { offsetInCU: 0xE009, offset: 0xE009, size: 0x8, addend: 0x0, symName: __ZNSt3__14swapB7v160006IPdEENS_9enable_ifIXaasr21is_move_constructibleIT_EE5valuesr18is_move_assignableIS3_EE5valueEvE4typeERS3_S6_, symObjAddr: 0xB9EC, symBinAddr: 0x10000E560, symSize: 0x3C }
  - { offsetInCU: 0xE05A, offset: 0xE05A, size: 0x8, addend: 0x0, symName: __ZNSt3__125__debug_db_invalidate_allB7v160006INS_6vectorIdNS_9allocatorIdEEEEEEvPT_, symObjAddr: 0xBA28, symBinAddr: 0x10000E59C, symSize: 0x10 }
  - { offsetInCU: 0xE08B, offset: 0xE08B, size: 0x8, addend: 0x0, symName: __ZNSt3__14moveB7v160006INS_16reverse_iteratorIPdEES3_EET0_T_S5_S4_, symObjAddr: 0xBA38, symBinAddr: 0x10000E5AC, symSize: 0x78 }
  - { offsetInCU: 0xE0E5, offset: 0xE0E5, size: 0x8, addend: 0x0, symName: __ZNSt3__16__moveB7v160006INS_17_ClassicAlgPolicyENS_16reverse_iteratorIPdEES4_S4_EENS_4pairIT0_T2_EES6_T1_S7_, symObjAddr: 0xBAB0, symBinAddr: 0x10000E624, symSize: 0x64 }
  - { offsetInCU: 0xE151, offset: 0xE151, size: 0x8, addend: 0x0, symName: __ZNSt3__123__dispatch_copy_or_moveB7v160006INS_17_ClassicAlgPolicyENS_11__move_loopIS1_EENS_14__move_trivialENS_16reverse_iteratorIPdEES7_S7_EENS_4pairIT2_T4_EES9_T3_SA_, symObjAddr: 0xBB14, symBinAddr: 0x10000E688, symSize: 0x64 }
  - { offsetInCU: 0xE1CF, offset: 0xE1CF, size: 0x8, addend: 0x0, symName: __ZNSt3__121__unwrap_and_dispatchB7v160006INS_10__overloadINS_11__move_loopINS_17_ClassicAlgPolicyEEENS_14__move_trivialEEENS_16reverse_iteratorIPdEES9_S9_Li0EEENS_4pairIT0_T2_EESB_T1_SC_, symObjAddr: 0xBB78, symBinAddr: 0x10000E6EC, symSize: 0x12C }
  - { offsetInCU: 0xE25F, offset: 0xE25F, size: 0x8, addend: 0x0, symName: __ZNSt3__114__unwrap_rangeB7v160006INS_16reverse_iteratorIPdEES3_EENS_4pairIT0_S5_EET_S7_, symObjAddr: 0xBCA4, symBinAddr: 0x10000E818, symSize: 0x84 }
  - { offsetInCU: 0xE3DA, offset: 0xE3DA, size: 0x8, addend: 0x0, symName: __ZNSt3__113__unwrap_iterB7v160006INS_16reverse_iteratorIPdEENS_18__unwrap_iter_implIS3_Lb0EEELi0EEEDTclsrT0_8__unwrapclsr3stdE7declvalIT_EEEES7_, symObjAddr: 0xBDC8, symBinAddr: 0x10000E93C, symSize: 0x44 }
  - { offsetInCU: 0xE41E, offset: 0xE41E, size: 0x8, addend: 0x0, symName: __ZNSt3__19make_pairB7v160006INS_16reverse_iteratorIPdEES3_EENS_4pairINS_18__unwrap_ref_decayIT_E4typeENS5_IT0_E4typeEEEOS6_OS9_, symObjAddr: 0xBE0C, symBinAddr: 0x10000E980, symSize: 0x38 }
  - { offsetInCU: 0xE46D, offset: 0xE46D, size: 0x8, addend: 0x0, symName: __ZNSt3__114__rewrap_rangeB7v160006INS_16reverse_iteratorIPdEES3_EET_S4_T0_, symObjAddr: 0xBE44, symBinAddr: 0x10000E9B8, symSize: 0x5C }
  - { offsetInCU: 0xE4B9, offset: 0xE4B9, size: 0x8, addend: 0x0, symName: __ZNSt3__113__rewrap_iterB7v160006INS_16reverse_iteratorIPdEES3_NS_18__unwrap_iter_implIS3_Lb0EEEEET_S6_T0_, symObjAddr: 0xBEA0, symBinAddr: 0x10000EA14, symSize: 0x74 }
  - { offsetInCU: 0xE50E, offset: 0xE50E, size: 0x8, addend: 0x0, symName: __ZNSt3__1neB7v160006IPdS1_EEbRKNS_16reverse_iteratorIT_EERKNS2_IT0_EE, symObjAddr: 0xBF14, symBinAddr: 0x10000EA88, symSize: 0x48 }
  - { offsetInCU: 0xE60C, offset: 0xE60C, size: 0x8, addend: 0x0, symName: __ZNSt3__1eqB7v160006INS_12basic_stringIcNS_11char_traitsIcEENS_9allocatorIcEEEENS4_IS6_EEEEbRKNS_6vectorIT_T0_EESD_, symObjAddr: 0xC474, symBinAddr: 0x10000EFE8, symSize: 0x9C }
  - { offsetInCU: 0xE66A, offset: 0xE66A, size: 0x8, addend: 0x0, symName: __ZNSt3__15equalB7v160006INS_11__wrap_iterIPKNS_12basic_stringIcNS_11char_traitsIcEENS_9allocatorIcEEEEEESA_EEbT_SB_T0_, symObjAddr: 0xC510, symBinAddr: 0x10000F084, symSize: 0x50 }
  - { offsetInCU: 0xE6C4, offset: 0xE6C4, size: 0x8, addend: 0x0, symName: __ZNSt3__15equalB7v160006INS_11__wrap_iterIPKNS_12basic_stringIcNS_11char_traitsIcEENS_9allocatorIcEEEEEESA_NS_10__equal_toEEEbT_SC_T0_T1_, symObjAddr: 0xC5C0, symBinAddr: 0x10000F134, symSize: 0xB0 }
  - { offsetInCU: 0xE735, offset: 0xE735, size: 0x8, addend: 0x0, symName: __ZNSt3__1neB7v160006IPKNS_12basic_stringIcNS_11char_traitsIcEENS_9allocatorIcEEEEEEbRKNS_11__wrap_iterIT_EESD_, symObjAddr: 0xC670, symBinAddr: 0x10000F1E4, symSize: 0x34 }
  - { offsetInCU: 0xE7E4, offset: 0xE7E4, size: 0x8, addend: 0x0, symName: __ZNSt3__1eqB7v160006IPKNS_12basic_stringIcNS_11char_traitsIcEENS_9allocatorIcEEEEEEbRKNS_11__wrap_iterIT_EESD_, symObjAddr: 0xC710, symBinAddr: 0x10000F284, symSize: 0x48 }
  - { offsetInCU: 0xE827, offset: 0xE827, size: 0x8, addend: 0x0, symName: __ZNSt3__1eqB7v160006INS_9allocatorIcEEEEbRKNS_12basic_stringIcNS_11char_traitsIcEET_EES9_, symObjAddr: 0xC770, symBinAddr: 0x10000F2E4, symSize: 0x148 }
  - { offsetInCU: 0xE89A, offset: 0xE89A, size: 0x8, addend: 0x0, symName: __ZNSt3__15beginB7v160006INS_6vectorINS_12basic_stringIcNS_11char_traitsIcEENS_9allocatorIcEEEENS5_IS7_EEEEEEDTcldtfp_5beginEERKT_, symObjAddr: 0xCAB0, symBinAddr: 0x10000F624, symSize: 0x2C }
  - { offsetInCU: 0xE8CF, offset: 0xE8CF, size: 0x8, addend: 0x0, symName: __ZNSt3__13endB7v160006INS_6vectorINS_12basic_stringIcNS_11char_traitsIcEENS_9allocatorIcEEEENS5_IS7_EEEEEEDTcldtfp_3endEERKT_, symObjAddr: 0xCADC, symBinAddr: 0x10000F650, symSize: 0x2C }
  - { offsetInCU: 0xE904, offset: 0xE904, size: 0x8, addend: 0x0, symName: __ZNSt3__1eqB7v160006IdNS_9allocatorIdEEEEbRKNS_6vectorIT_T0_EES8_, symObjAddr: 0xCC08, symBinAddr: 0x10000F77C, symSize: 0x9C }
  - { offsetInCU: 0xE962, offset: 0xE962, size: 0x8, addend: 0x0, symName: __ZNSt3__15equalB7v160006INS_11__wrap_iterIPKdEES4_EEbT_S5_T0_, symObjAddr: 0xCCA4, symBinAddr: 0x10000F818, symSize: 0x50 }
  - { offsetInCU: 0xE9BC, offset: 0xE9BC, size: 0x8, addend: 0x0, symName: __ZNSt3__15equalB7v160006INS_11__wrap_iterIPKdEES4_NS_10__equal_toEEEbT_S6_T0_T1_, symObjAddr: 0xCD54, symBinAddr: 0x10000F8C8, symSize: 0xB0 }
  - { offsetInCU: 0xEA2D, offset: 0xEA2D, size: 0x8, addend: 0x0, symName: __ZNSt3__1neB7v160006IPKdEEbRKNS_11__wrap_iterIT_EES7_, symObjAddr: 0xCE04, symBinAddr: 0x10000F978, symSize: 0x34 }
  - { offsetInCU: 0xEA70, offset: 0xEA70, size: 0x8, addend: 0x0, symName: __ZNSt3__1eqB7v160006IPKdEEbRKNS_11__wrap_iterIT_EES7_, symObjAddr: 0xCEA4, symBinAddr: 0x10000FA18, symSize: 0x48 }
  - { offsetInCU: 0xEAB3, offset: 0xEAB3, size: 0x8, addend: 0x0, symName: __ZNSt3__15beginB7v160006INS_6vectorIdNS_9allocatorIdEEEEEEDTcldtfp_5beginEERKT_, symObjAddr: 0xD0FC, symBinAddr: 0x10000FC70, symSize: 0x2C }
  - { offsetInCU: 0xEAE8, offset: 0xEAE8, size: 0x8, addend: 0x0, symName: __ZNSt3__13endB7v160006INS_6vectorIdNS_9allocatorIdEEEEEEDTcldtfp_3endEERKT_, symObjAddr: 0xD128, symBinAddr: 0x10000FC9C, symSize: 0x2C }
  - { offsetInCU: 0xEB1D, offset: 0xEB1D, size: 0x8, addend: 0x0, symName: __ZNSt3__1eqB7v160006IcNS_11char_traitsIcEENS_9allocatorIcEEEEbRKNS_12basic_stringIT_T0_T1_EEPKS6_, symObjAddr: 0xD324, symBinAddr: 0x10000FE98, symSize: 0xAC }
  - { offsetInCU: 0xEB84, offset: 0xEB84, size: 0x8, addend: 0x0, symName: __ZNSt3__118__constexpr_strlenB7v160006EPKc, symObjAddr: 0xD404, symBinAddr: 0x10000FF78, symSize: 0x24 }
  - { offsetInCU: 0xEBB0, offset: 0xEBB0, size: 0x8, addend: 0x0, symName: __ZNSt3__15beginB7v160006IKcLm3EEEPT_RAT0__S2_, symObjAddr: 0xD5D8, symBinAddr: 0x10001014C, symSize: 0x14 }
  - { offsetInCU: 0xEBEF, offset: 0xEBEF, size: 0x8, addend: 0x0, symName: __ZNSt3__13endB7v160006IKcLm3EEEPT_RAT0__S2_, symObjAddr: 0xD5EC, symBinAddr: 0x100010160, symSize: 0x18 }
  - { offsetInCU: 0xEC2E, offset: 0xEC2E, size: 0x8, addend: 0x0, symName: __ZNSt3__116__pad_and_outputB7v160006IcNS_11char_traitsIcEEEENS_19ostreambuf_iteratorIT_T0_EES6_PKS4_S8_S8_RNS_8ios_baseES4_, symObjAddr: 0xDC18, symBinAddr: 0x10001078C, symSize: 0x240 }
  - { offsetInCU: 0xECFD, offset: 0xECFD, size: 0x8, addend: 0x0, symName: __ZNSt3__112__to_addressB7v160006IcEEPT_S2_, symObjAddr: 0xE090, symBinAddr: 0x100010C04, symSize: 0x14 }
  - { offsetInCU: 0xED65, offset: 0xED65, size: 0x8, addend: 0x0, symName: __ZNSt3__19use_facetB7v160006INS_5ctypeIcEEEERKT_RKNS_6localeE, symObjAddr: 0xE2A0, symBinAddr: 0x100010E14, symSize: 0x2C }
  - { offsetInCU: 0xF234, offset: 0xF234, size: 0x8, addend: 0x0, symName: __ZNSt3__115__debug_db_swapB7v160006INS_6vectorINS_12basic_stringIcNS_11char_traitsIcEENS_9allocatorIcEEEENS5_IS7_EEEEEEvPT_SB_, symObjAddr: 0xE99C, symBinAddr: 0x100011510, symSize: 0x14 }
  - { offsetInCU: 0xF273, offset: 0xF273, size: 0x8, addend: 0x0, symName: __ZNSt3__120__throw_out_of_rangeB7v160006EPKc, symObjAddr: 0xED5C, symBinAddr: 0x1000118D0, symSize: 0x64 }
  - { offsetInCU: 0xF36F, offset: 0xF36F, size: 0x8, addend: 0x0, symName: __ZNSt3__13getB7v160006ILm0EKNS_12basic_stringIcNS_11char_traitsIcEENS_9allocatorIcEEEE8TestCaseEERNS_13tuple_elementIXT_ENS_4pairIT0_T1_EEE4typeERSD_, symObjAddr: 0xEF50, symBinAddr: 0x100011AC4, symSize: 0x24 }
  - { offsetInCU: 0xF3B8, offset: 0xF3B8, size: 0x8, addend: 0x0, symName: __ZNSt3__13getB7v160006ILm1EKNS_12basic_stringIcNS_11char_traitsIcEENS_9allocatorIcEEEE8TestCaseEERNS_13tuple_elementIXT_ENS_4pairIT0_T1_EEE4typeERSD_, symObjAddr: 0xEF74, symBinAddr: 0x100011AE8, symSize: 0x24 }
  - { offsetInCU: 0xFB83, offset: 0xFB83, size: 0x8, addend: 0x0, symName: __ZSt28__throw_bad_array_new_lengthB7v160006v, symObjAddr: 0x515C, symBinAddr: 0x100007CD0, symSize: 0x34 }
  - { offsetInCU: 0xFD88, offset: 0xFD88, size: 0x8, addend: 0x0, symName: __ZL9destroyer, symObjAddr: 0x824C9, symBinAddr: 0x100018011, symSize: 0x0 }
  - { offsetInCU: 0xFDB9, offset: 0xFDB9, size: 0x8, addend: 0x0, symName: __ZN9TestSuite10incompleteE, symObjAddr: 0x824B8, symBinAddr: 0x100018000, symSize: 0x0 }
  - { offsetInCU: 0x10812, offset: 0x10812, size: 0x8, addend: 0x0, symName: __ZN9TestSuite8instanceE, symObjAddr: 0x824C0, symBinAddr: 0x100018008, symSize: 0x0 }
  - { offsetInCU: 0x10A89, offset: 0x10A89, size: 0x8, addend: 0x0, symName: __ZNSt3__16vectorINS_12basic_stringIcNS_11char_traitsIcEENS_9allocatorIcEEEENS4_IS6_EEE26__swap_out_circular_bufferERNS_14__split_bufferIS6_RS7_EE, symObjAddr: 0xA670, symBinAddr: 0x10000D1E4, symSize: 0x118 }
  - { offsetInCU: 0x10B09, offset: 0x10B09, size: 0x8, addend: 0x0, symName: __ZNSt3__16vectorIdNS_9allocatorIdEEE26__swap_out_circular_bufferERNS_14__split_bufferIdRS2_EE, symObjAddr: 0xB5B8, symBinAddr: 0x10000E12C, symSize: 0x118 }
  - { offsetInCU: 0x12DCB, offset: 0x12DCB, size: 0x8, addend: 0x0, symName: __Z18safe_equals_helpermi, symObjAddr: 0x0, symBinAddr: 0x100002B74, symSize: 0x50 }
  - { offsetInCU: 0x12E08, offset: 0x12E08, size: 0x8, addend: 0x0, symName: __Z18safe_equals_helperim, symObjAddr: 0x50, symBinAddr: 0x100002BC4, symSize: 0x50 }
  - { offsetInCU: 0x12E45, offset: 0x12E45, size: 0x8, addend: 0x0, symName: __Z22safe_not_equals_helpermi, symObjAddr: 0xA0, symBinAddr: 0x100002C14, symSize: 0x50 }
  - { offsetInCU: 0x12E82, offset: 0x12E82, size: 0x8, addend: 0x0, symName: __Z22safe_not_equals_helperim, symObjAddr: 0xF0, symBinAddr: 0x100002C64, symSize: 0x50 }
  - { offsetInCU: 0x12EC0, offset: 0x12EC0, size: 0x8, addend: 0x0, symName: __ZN8TestCase3runEb, symObjAddr: 0x140, symBinAddr: 0x100002CB4, symSize: 0x364 }
  - { offsetInCU: 0x12F2C, offset: 0x12F2C, size: 0x8, addend: 0x0, symName: __ZNSt3__113basic_ostreamIcNS_11char_traitsIcEEElsB7v160006EPFRS3_S4_E, symObjAddr: 0x538, symBinAddr: 0x1000030AC, symSize: 0x2C }
  - { offsetInCU: 0x12FB2, offset: 0x12FB2, size: 0x8, addend: 0x0, symName: __ZNSt3__119basic_ostringstreamIcNS_11char_traitsIcEENS_9allocatorIcEEEC1B7v160006Ev, symObjAddr: 0x5BC, symBinAddr: 0x100003130, symSize: 0xEC }
  - { offsetInCU: 0x12FDB, offset: 0x12FDB, size: 0x8, addend: 0x0, symName: __Z8demanglePKc, symObjAddr: 0x6A8, symBinAddr: 0x10000321C, symSize: 0xDC }
  - { offsetInCU: 0x1306B, offset: 0x1306B, size: 0x8, addend: 0x0, symName: __ZNKSt9type_info4nameB7v160006Ev, symObjAddr: 0x784, symBinAddr: 0x1000032F8, symSize: 0x24 }
  - { offsetInCU: 0x130B1, offset: 0x130B1, size: 0x8, addend: 0x0, symName: __ZNKSt3__119basic_ostringstreamIcNS_11char_traitsIcEENS_9allocatorIcEEE3strB7v160006Ev, symObjAddr: 0x7DC, symBinAddr: 0x100003350, symSize: 0x30 }
  - { offsetInCU: 0x130D7, offset: 0x130D7, size: 0x8, addend: 0x0, symName: __ZNSt3__112basic_stringIcNS_11char_traitsIcEENS_9allocatorIcEEEaSB7v160006EOS5_, symObjAddr: 0x80C, symBinAddr: 0x100003380, symSize: 0x34 }
  - { offsetInCU: 0x13111, offset: 0x13111, size: 0x8, addend: 0x0, symName: __ZNSt3__119basic_ostringstreamIcNS_11char_traitsIcEENS_9allocatorIcEEED1Ev, symObjAddr: 0x840, symBinAddr: 0x1000033B4, symSize: 0x40 }
  - { offsetInCU: 0x131D6, offset: 0x131D6, size: 0x8, addend: 0x0, symName: __ZNK11TestFailure9to_stringEv, symObjAddr: 0x88C, symBinAddr: 0x100003400, symSize: 0x98 }
  - { offsetInCU: 0x1320A, offset: 0x1320A, size: 0x8, addend: 0x0, symName: __ZN8TestCase5printEb, symObjAddr: 0x924, symBinAddr: 0x100003498, symSize: 0x170 }
  - { offsetInCU: 0x13241, offset: 0x13241, size: 0x8, addend: 0x0, symName: __ZNKSt3__112basic_stringIcNS_11char_traitsIcEENS_9allocatorIcEEE5emptyB7v160006Ev, symObjAddr: 0xA94, symBinAddr: 0x100003608, symSize: 0x30 }
  - { offsetInCU: 0x13267, offset: 0x13267, size: 0x8, addend: 0x0, symName: __ZN9TestSuite9run_testsEiPPc, symObjAddr: 0xAC4, symBinAddr: 0x100003638, symSize: 0x690 }
  - { offsetInCU: 0x13475, offset: 0x13475, size: 0x8, addend: 0x0, symName: __ZN11SetCompleteC1ERb, symObjAddr: 0x1154, symBinAddr: 0x100003CC8, symSize: 0x34 }
  - { offsetInCU: 0x134AE, offset: 0x134AE, size: 0x8, addend: 0x0, symName: __ZNSt3__16vectorINS_12basic_stringIcNS_11char_traitsIcEENS_9allocatorIcEEEENS4_IS6_EEEC1B7v160006Ev, symObjAddr: 0x1188, symBinAddr: 0x100003CFC, symSize: 0x2C }
  - { offsetInCU: 0x134D8, offset: 0x134D8, size: 0x8, addend: 0x0, symName: __ZN9TestSuite21get_test_names_to_runEiPPc, symObjAddr: 0x11B4, symBinAddr: 0x100003D28, symSize: 0x630 }
  - { offsetInCU: 0x1356C, offset: 0x1356C, size: 0x8, addend: 0x0, symName: __ZNSt3__16vectorINS_12basic_stringIcNS_11char_traitsIcEENS_9allocatorIcEEEENS4_IS6_EEEaSB7v160006EOS8_, symObjAddr: 0x17E4, symBinAddr: 0x100004358, symSize: 0x34 }
  - { offsetInCU: 0x135A3, offset: 0x135A3, size: 0x8, addend: 0x0, symName: __ZNSt3__16vectorINS_12basic_stringIcNS_11char_traitsIcEENS_9allocatorIcEEEENS4_IS6_EEED1B7v160006Ev, symObjAddr: 0x1818, symBinAddr: 0x10000438C, symSize: 0x2C }
  - { offsetInCU: 0x135CD, offset: 0x135CD, size: 0x8, addend: 0x0, symName: __ZNSt3__16vectorINS_12basic_stringIcNS_11char_traitsIcEENS_9allocatorIcEEEENS4_IS6_EEE5beginB7v160006Ev, symObjAddr: 0x1844, symBinAddr: 0x1000043B8, symSize: 0x30 }
  - { offsetInCU: 0x135F5, offset: 0x135F5, size: 0x8, addend: 0x0, symName: __ZNSt3__16vectorINS_12basic_stringIcNS_11char_traitsIcEENS_9allocatorIcEEEENS4_IS6_EEE3endB7v160006Ev, symObjAddr: 0x1874, symBinAddr: 0x1000043E8, symSize: 0x30 }
  - { offsetInCU: 0x1361D, offset: 0x1361D, size: 0x8, addend: 0x0, symName: __ZNKSt3__111__wrap_iterIPNS_12basic_stringIcNS_11char_traitsIcEENS_9allocatorIcEEEEEdeB7v160006Ev, symObjAddr: 0x18D8, symBinAddr: 0x10000444C, symSize: 0x18 }
  - { offsetInCU: 0x13643, offset: 0x13643, size: 0x8, addend: 0x0, symName: __ZNSt3__13mapINS_12basic_stringIcNS_11char_traitsIcEENS_9allocatorIcEEEE8TestCaseNS_4lessIS6_EENS4_INS_4pairIKS6_S7_EEEEE4findB7v160006ERSB_, symObjAddr: 0x1920, symBinAddr: 0x100004494, symSize: 0x40 }
  - { offsetInCU: 0x13678, offset: 0x13678, size: 0x8, addend: 0x0, symName: __ZNSt3__111__wrap_iterIPNS_12basic_stringIcNS_11char_traitsIcEENS_9allocatorIcEEEEEppB7v160006Ev, symObjAddr: 0x19CC, symBinAddr: 0x100004540, symSize: 0x20 }
  - { offsetInCU: 0x1369E, offset: 0x1369E, size: 0x8, addend: 0x0, symName: __ZNSt3__13mapINS_12basic_stringIcNS_11char_traitsIcEENS_9allocatorIcEEEE8TestCaseNS_4lessIS6_EENS4_INS_4pairIKS6_S7_EEEEE2atERSB_, symObjAddr: 0x19EC, symBinAddr: 0x100004560, symSize: 0x6C }
  - { offsetInCU: 0x136F3, offset: 0x136F3, size: 0x8, addend: 0x0, symName: __ZNSt3__13mapINS_12basic_stringIcNS_11char_traitsIcEENS_9allocatorIcEEEE8TestCaseNS_4lessIS6_EENS4_INS_4pairIKS6_S7_EEEEE5beginB7v160006Ev, symObjAddr: 0x1B1C, symBinAddr: 0x100004690, symSize: 0x38 }
  - { offsetInCU: 0x13719, offset: 0x13719, size: 0x8, addend: 0x0, symName: __ZNSt3__13mapINS_12basic_stringIcNS_11char_traitsIcEENS_9allocatorIcEEEE8TestCaseNS_4lessIS6_EENS4_INS_4pairIKS6_S7_EEEEE3endB7v160006Ev, symObjAddr: 0x1B54, symBinAddr: 0x1000046C8, symSize: 0x38 }
  - { offsetInCU: 0x1373F, offset: 0x1373F, size: 0x8, addend: 0x0, symName: __ZNKSt3__16vectorINS_12basic_stringIcNS_11char_traitsIcEENS_9allocatorIcEEEENS4_IS6_EEE4sizeB7v160006Ev, symObjAddr: 0x1C50, symBinAddr: 0x1000047C4, symSize: 0x28 }
  - { offsetInCU: 0x13765, offset: 0x13765, size: 0x8, addend: 0x0, symName: __ZN11SetCompleteD1Ev, symObjAddr: 0x1C78, symBinAddr: 0x1000047EC, symSize: 0x2C }
  - { offsetInCU: 0x13794, offset: 0x13794, size: 0x8, addend: 0x0, symName: __ZNSt3__112basic_stringIcNS_11char_traitsIcEENS_9allocatorIcEEEC1B7v160006IDnEEPKc, symObjAddr: 0x1D50, symBinAddr: 0x1000048C4, symSize: 0x34 }
  - { offsetInCU: 0x137D2, offset: 0x137D2, size: 0x8, addend: 0x0, symName: __ZN9TestSuite3getEv, symObjAddr: 0x1D84, symBinAddr: 0x1000048F8, symSize: 0x80 }
  - { offsetInCU: 0x137E6, offset: 0x137E6, size: 0x8, addend: 0x0, symName: __ZN9TestSuite16print_test_namesERNSt3__113basic_ostreamIcNS0_11char_traitsIcEEEE, symObjAddr: 0x1E04, symBinAddr: 0x100004978, symSize: 0x8C }
  - { offsetInCU: 0x138BC, offset: 0x138BC, size: 0x8, addend: 0x0, symName: __ZN9ExitSuiteC1Ei, symObjAddr: 0x1EB8, symBinAddr: 0x100004A2C, symSize: 0x34 }
  - { offsetInCU: 0x138F5, offset: 0x138F5, size: 0x8, addend: 0x0, symName: __ZN9ExitSuiteD1Ev, symObjAddr: 0x1EEC, symBinAddr: 0x100004A60, symSize: 0x2C }
  - { offsetInCU: 0x13922, offset: 0x13922, size: 0x8, addend: 0x0, symName: __ZN9TestSuite17enable_quiet_modeEv, symObjAddr: 0x1F18, symBinAddr: 0x100004A8C, symSize: 0x1C }
  - { offsetInCU: 0x13948, offset: 0x13948, size: 0x8, addend: 0x0, symName: __ZNSt3__16vectorINS_12basic_stringIcNS_11char_traitsIcEENS_9allocatorIcEEEENS4_IS6_EEE9push_backB7v160006EOS6_, symObjAddr: 0x1F34, symBinAddr: 0x100004AA8, symSize: 0x6C }
  - { offsetInCU: 0x1397F, offset: 0x1397F, size: 0x8, addend: 0x0, symName: __ZNKSt3__16vectorINS_12basic_stringIcNS_11char_traitsIcEENS_9allocatorIcEEEENS4_IS6_EEE5emptyB7v160006Ev, symObjAddr: 0x1FA0, symBinAddr: 0x100004B14, symSize: 0x28 }
  - { offsetInCU: 0x139A4, offset: 0x139A4, size: 0x8, addend: 0x0, symName: __ZlsRNSt3__113basic_ostreamIcNS_11char_traitsIcEEEERK11TestFailure, symObjAddr: 0x2124, symBinAddr: 0x100004C98, symSize: 0x2C }
  - { offsetInCU: 0x139E2, offset: 0x139E2, size: 0x8, addend: 0x0, symName: __ZNK11TestFailure5printERNSt3__113basic_ostreamIcNS0_11char_traitsIcEEEE, symObjAddr: 0x2150, symBinAddr: 0x100004CC4, symSize: 0x7C }
  - { offsetInCU: 0x13A15, offset: 0x13A15, size: 0x8, addend: 0x0, symName: __Z11assert_truebiPKc, symObjAddr: 0x21CC, symBinAddr: 0x100004D40, symSize: 0x148 }
  - { offsetInCU: 0x13A6E, offset: 0x13A6E, size: 0x8, addend: 0x0, symName: __ZN11TestFailureC1ENSt3__112basic_stringIcNS0_11char_traitsIcEENS0_9allocatorIcEEEEiPKc, symObjAddr: 0x2314, symBinAddr: 0x100004E88, symSize: 0x44 }
  - { offsetInCU: 0x13AC3, offset: 0x13AC3, size: 0x8, addend: 0x0, symName: __ZN11TestFailureD1Ev, symObjAddr: 0x2358, symBinAddr: 0x100004ECC, symSize: 0x2C }
  - { offsetInCU: 0x13AEE, offset: 0x13AEE, size: 0x8, addend: 0x0, symName: __Z12assert_falsebiPKc, symObjAddr: 0x2384, symBinAddr: 0x100004EF8, symSize: 0x148 }
  - { offsetInCU: 0x13B46, offset: 0x13B46, size: 0x8, addend: 0x0, symName: __Z19assert_almost_equaldddiPKc, symObjAddr: 0x24CC, symBinAddr: 0x100005040, symSize: 0x1C8 }
  - { offsetInCU: 0x13BBC, offset: 0x13BBC, size: 0x8, addend: 0x0, symName: __Z3absB7v160006d, symObjAddr: 0x2694, symBinAddr: 0x100005208, symSize: 0x18 }
  - { offsetInCU: 0x13BE9, offset: 0x13BE9, size: 0x8, addend: 0x0, symName: __ZNSt3__18ios_base9precisionB7v160006El, symObjAddr: 0x26AC, symBinAddr: 0x100005220, symSize: 0x2C }
  - { offsetInCU: 0x13C2F, offset: 0x13C2F, size: 0x8, addend: 0x0, symName: __ZL15map_public_testv, symObjAddr: 0x26D8, symBinAddr: 0x10000524C, symSize: 0x75C }
  - { offsetInCU: 0x13D3A, offset: 0x13D3A, size: 0x8, addend: 0x0, symName: __ZN14TestRegistererC1ERKNSt3__112basic_stringIcNS0_11char_traitsIcEENS0_9allocatorIcEEEEPFvvE, symObjAddr: 0x2E34, symBinAddr: 0x1000059A8, symSize: 0x3C }
  - { offsetInCU: 0x13D80, offset: 0x13D80, size: 0x8, addend: 0x0, symName: _main, symObjAddr: 0x2E70, symBinAddr: 0x1000059E4, symSize: 0x34 }
  - { offsetInCU: 0x13DB7, offset: 0x13DB7, size: 0x8, addend: 0x0, symName: __ZN18TestSuiteDestroyerD1Ev, symObjAddr: 0x2EA4, symBinAddr: 0x100005A18, symSize: 0x2C }
  - { offsetInCU: 0x13DE1, offset: 0x13DE1, size: 0x8, addend: 0x0, symName: __ZNSt3__119basic_ostringstreamIcNS_11char_traitsIcEENS_9allocatorIcEEED2Ev, symObjAddr: 0x2ED0, symBinAddr: 0x100005A44, symSize: 0x64 }
  - { offsetInCU: 0x13E1B, offset: 0x13E1B, size: 0x8, addend: 0x0, symName: __ZTv0_n24_NSt3__119basic_ostringstreamIcNS_11char_traitsIcEENS_9allocatorIcEEED1Ev, symObjAddr: 0x2F34, symBinAddr: 0x100005AA8, symSize: 0x28 }
  - { offsetInCU: 0x13E37, offset: 0x13E37, size: 0x8, addend: 0x0, symName: __ZNSt3__115basic_stringbufIcNS_11char_traitsIcEENS_9allocatorIcEEED1Ev, symObjAddr: 0x2F5C, symBinAddr: 0x100005AD0, symSize: 0x2C }
  - { offsetInCU: 0x13E64, offset: 0x13E64, size: 0x8, addend: 0x0, symName: __ZNSt3__115basic_stringbufIcNS_11char_traitsIcEENS_9allocatorIcEEED2Ev, symObjAddr: 0x2F88, symBinAddr: 0x100005AFC, symSize: 0x48 }
  - { offsetInCU: 0x13E91, offset: 0x13E91, size: 0x8, addend: 0x0, symName: __ZN11SetCompleteC2ERb, symObjAddr: 0x2FD0, symBinAddr: 0x100005B44, symSize: 0x2C }
  - { offsetInCU: 0x13ECA, offset: 0x13ECA, size: 0x8, addend: 0x0, symName: __ZNKSt3__111__wrap_iterIPNS_12basic_stringIcNS_11char_traitsIcEENS_9allocatorIcEEEEE4baseB7v160006Ev, symObjAddr: 0x3044, symBinAddr: 0x100005BB8, symSize: 0x18 }
  - { offsetInCU: 0x13EF0, offset: 0x13EF0, size: 0x8, addend: 0x0, symName: __ZN11SetCompleteD2Ev, symObjAddr: 0x305C, symBinAddr: 0x100005BD0, symSize: 0x1C }
  - { offsetInCU: 0x13F1A, offset: 0x13F1A, size: 0x8, addend: 0x0, symName: __ZN9TestSuiteC1Ev, symObjAddr: 0x3078, symBinAddr: 0x100005BEC, symSize: 0x2C }
  - { offsetInCU: 0x13F44, offset: 0x13F44, size: 0x8, addend: 0x0, symName: __ZN9TestSuiteC2Ev, symObjAddr: 0x30A4, symBinAddr: 0x100005C18, symSize: 0x68 }
  - { offsetInCU: 0x13FAE, offset: 0x13FAE, size: 0x8, addend: 0x0, symName: __ZNSt3__13mapINS_12basic_stringIcNS_11char_traitsIcEENS_9allocatorIcEEEE8TestCaseNS_4lessIS6_EENS4_INS_4pairIKS6_S7_EEEEEC1B7v160006Ev, symObjAddr: 0x310C, symBinAddr: 0x100005C80, symSize: 0x2C }
  - { offsetInCU: 0x13FE2, offset: 0x13FE2, size: 0x8, addend: 0x0, symName: __ZZN9TestSuiteC1EvENKUlvE_cvPFvvEEv, symObjAddr: 0x3138, symBinAddr: 0x100005CAC, symSize: 0x18 }
  - { offsetInCU: 0x1400E, offset: 0x1400E, size: 0x8, addend: 0x0, symName: __ZNSt3__13mapINS_12basic_stringIcNS_11char_traitsIcEENS_9allocatorIcEEEE8TestCaseNS_4lessIS6_EENS4_INS_4pairIKS6_S7_EEEEED1B7v160006Ev, symObjAddr: 0x3150, symBinAddr: 0x100005CC4, symSize: 0x2C }
  - { offsetInCU: 0x14038, offset: 0x14038, size: 0x8, addend: 0x0, symName: __ZNSt3__13mapINS_12basic_stringIcNS_11char_traitsIcEENS_9allocatorIcEEEE8TestCaseNS_4lessIS6_EENS4_INS_4pairIKS6_S7_EEEEEC2B7v160006Ev, symObjAddr: 0x317C, symBinAddr: 0x100005CF0, symSize: 0x40 }
  - { offsetInCU: 0x14062, offset: 0x14062, size: 0x8, addend: 0x0, symName: __ZNSt3__119__map_value_compareINS_12basic_stringIcNS_11char_traitsIcEENS_9allocatorIcEEEENS_12__value_typeIS6_8TestCaseEENS_4lessIS6_EELb1EEC1B7v160006ESB_, symObjAddr: 0x31BC, symBinAddr: 0x100005D30, symSize: 0x2C }
  - { offsetInCU: 0x1409B, offset: 0x1409B, size: 0x8, addend: 0x0, symName: __ZNSt3__16__treeINS_12__value_typeINS_12basic_stringIcNS_11char_traitsIcEENS_9allocatorIcEEEE8TestCaseEENS_19__map_value_compareIS7_S9_NS_4lessIS7_EELb1EEENS5_IS9_EEEC1ERKSD_, symObjAddr: 0x31E8, symBinAddr: 0x100005D5C, symSize: 0x34 }
  - { offsetInCU: 0x140D6, offset: 0x140D6, size: 0x8, addend: 0x0, symName: __ZNSt3__119__map_value_compareINS_12basic_stringIcNS_11char_traitsIcEENS_9allocatorIcEEEENS_12__value_typeIS6_8TestCaseEENS_4lessIS6_EELb1EEC2B7v160006ESB_, symObjAddr: 0x321C, symBinAddr: 0x100005D90, symSize: 0x14 }
  - { offsetInCU: 0x1410F, offset: 0x1410F, size: 0x8, addend: 0x0, symName: __ZNSt3__16__treeINS_12__value_typeINS_12basic_stringIcNS_11char_traitsIcEENS_9allocatorIcEEEE8TestCaseEENS_19__map_value_compareIS7_S9_NS_4lessIS7_EELb1EEENS5_IS9_EEEC2ERKSD_, symObjAddr: 0x3230, symBinAddr: 0x100005DA4, symSize: 0x7C }
  - { offsetInCU: 0x1414A, offset: 0x1414A, size: 0x8, addend: 0x0, symName: __ZNSt3__117__compressed_pairINS_15__tree_end_nodeIPNS_16__tree_node_baseIPvEEEENS_9allocatorINS_11__tree_nodeINS_12__value_typeINS_12basic_stringIcNS_11char_traitsIcEENS7_IcEEEE8TestCaseEES3_EEEEEC1B7v160006ILb1EvEEv, symObjAddr: 0x32AC, symBinAddr: 0x100005E20, symSize: 0x2C }
  - { offsetInCU: 0x14185, offset: 0x14185, size: 0x8, addend: 0x0, symName: __ZNSt3__117__compressed_pairImNS_19__map_value_compareINS_12basic_stringIcNS_11char_traitsIcEENS_9allocatorIcEEEENS_12__value_typeIS7_8TestCaseEENS_4lessIS7_EELb1EEEEC1B7v160006IiRKSD_EEOT_OT0_, symObjAddr: 0x32D8, symBinAddr: 0x100005E4C, symSize: 0x3C }
  - { offsetInCU: 0x141DD, offset: 0x141DD, size: 0x8, addend: 0x0, symName: __ZNSt3__16__treeINS_12__value_typeINS_12basic_stringIcNS_11char_traitsIcEENS_9allocatorIcEEEE8TestCaseEENS_19__map_value_compareIS7_S9_NS_4lessIS7_EELb1EEENS5_IS9_EEE10__end_nodeB7v160006Ev, symObjAddr: 0x3314, symBinAddr: 0x100005E88, symSize: 0x2C }
  - { offsetInCU: 0x14203, offset: 0x14203, size: 0x8, addend: 0x0, symName: __ZNSt3__16__treeINS_12__value_typeINS_12basic_stringIcNS_11char_traitsIcEENS_9allocatorIcEEEE8TestCaseEENS_19__map_value_compareIS7_S9_NS_4lessIS7_EELb1EEENS5_IS9_EEE12__begin_nodeB7v160006Ev, symObjAddr: 0x3340, symBinAddr: 0x100005EB4, symSize: 0x14 }
  - { offsetInCU: 0x14229, offset: 0x14229, size: 0x8, addend: 0x0, symName: __ZNSt3__117__compressed_pairINS_15__tree_end_nodeIPNS_16__tree_node_baseIPvEEEENS_9allocatorINS_11__tree_nodeINS_12__value_typeINS_12basic_stringIcNS_11char_traitsIcEENS7_IcEEEE8TestCaseEES3_EEEEEC2B7v160006ILb1EvEEv, symObjAddr: 0x3354, symBinAddr: 0x100005EC8, symSize: 0x34 }
  - { offsetInCU: 0x1425E, offset: 0x1425E, size: 0x8, addend: 0x0, symName: __ZNSt3__122__compressed_pair_elemINS_15__tree_end_nodeIPNS_16__tree_node_baseIPvEEEELi0ELb0EEC2B7v160006ENS_16__value_init_tagE, symObjAddr: 0x3388, symBinAddr: 0x100005EFC, symSize: 0x2C }
  - { offsetInCU: 0x14293, offset: 0x14293, size: 0x8, addend: 0x0, symName: __ZNSt3__122__compressed_pair_elemINS_9allocatorINS_11__tree_nodeINS_12__value_typeINS_12basic_stringIcNS_11char_traitsIcEENS1_IcEEEE8TestCaseEEPvEEEELi1ELb1EEC2B7v160006ENS_16__value_init_tagE, symObjAddr: 0x33B4, symBinAddr: 0x100005F28, symSize: 0x2C }
  - { offsetInCU: 0x142C8, offset: 0x142C8, size: 0x8, addend: 0x0, symName: __ZNSt3__115__tree_end_nodeIPNS_16__tree_node_baseIPvEEEC1B7v160006Ev, symObjAddr: 0x33E0, symBinAddr: 0x100005F54, symSize: 0x2C }
  - { offsetInCU: 0x142F2, offset: 0x142F2, size: 0x8, addend: 0x0, symName: __ZNSt3__115__tree_end_nodeIPNS_16__tree_node_baseIPvEEEC2B7v160006Ev, symObjAddr: 0x340C, symBinAddr: 0x100005F80, symSize: 0x18 }
  - { offsetInCU: 0x1431C, offset: 0x1431C, size: 0x8, addend: 0x0, symName: __ZNSt3__19allocatorINS_11__tree_nodeINS_12__value_typeINS_12basic_stringIcNS_11char_traitsIcEENS0_IcEEEE8TestCaseEEPvEEEC2B7v160006Ev, symObjAddr: 0x3424, symBinAddr: 0x100005F98, symSize: 0x2C }
  - { offsetInCU: 0x14346, offset: 0x14346, size: 0x8, addend: 0x0, symName: __ZNSt3__116__non_trivial_ifILb1ENS_9allocatorINS_11__tree_nodeINS_12__value_typeINS_12basic_stringIcNS_11char_traitsIcEENS1_IcEEEE8TestCaseEEPvEEEEEC2B7v160006Ev, symObjAddr: 0x3450, symBinAddr: 0x100005FC4, symSize: 0x14 }
  - { offsetInCU: 0x14370, offset: 0x14370, size: 0x8, addend: 0x0, symName: __ZNSt3__117__compressed_pairImNS_19__map_value_compareINS_12basic_stringIcNS_11char_traitsIcEENS_9allocatorIcEEEENS_12__value_typeIS7_8TestCaseEENS_4lessIS7_EELb1EEEEC2B7v160006IiRKSD_EEOT_OT0_, symObjAddr: 0x3464, symBinAddr: 0x100005FD8, symSize: 0x44 }
  - { offsetInCU: 0x143C8, offset: 0x143C8, size: 0x8, addend: 0x0, symName: __ZNSt3__122__compressed_pair_elemImLi0ELb0EEC2B7v160006IivEEOT_, symObjAddr: 0x34A8, symBinAddr: 0x10000601C, symSize: 0x24 }
  - { offsetInCU: 0x1440A, offset: 0x1440A, size: 0x8, addend: 0x0, symName: __ZNSt3__122__compressed_pair_elemINS_19__map_value_compareINS_12basic_stringIcNS_11char_traitsIcEENS_9allocatorIcEEEENS_12__value_typeIS7_8TestCaseEENS_4lessIS7_EELb1EEELi1ELb1EEC2B7v160006IRKSD_vEEOT_, symObjAddr: 0x34CC, symBinAddr: 0x100006040, symSize: 0x18 }
  - { offsetInCU: 0x1444C, offset: 0x1444C, size: 0x8, addend: 0x0, symName: __ZNSt3__114pointer_traitsIPNS_15__tree_end_nodeIPNS_16__tree_node_baseIPvEEEEE10pointer_toB7v160006ERS6_, symObjAddr: 0x34E4, symBinAddr: 0x100006058, symSize: 0x14 }
  - { offsetInCU: 0x1446F, offset: 0x1446F, size: 0x8, addend: 0x0, symName: __ZNSt3__117__compressed_pairINS_15__tree_end_nodeIPNS_16__tree_node_baseIPvEEEENS_9allocatorINS_11__tree_nodeINS_12__value_typeINS_12basic_stringIcNS_11char_traitsIcEENS7_IcEEEE8TestCaseEES3_EEEEE5firstB7v160006Ev, symObjAddr: 0x34F8, symBinAddr: 0x10000606C, symSize: 0x24 }
  - { offsetInCU: 0x14495, offset: 0x14495, size: 0x8, addend: 0x0, symName: __ZNSt3__122__compressed_pair_elemINS_15__tree_end_nodeIPNS_16__tree_node_baseIPvEEEELi0ELb0EE5__getB7v160006Ev, symObjAddr: 0x351C, symBinAddr: 0x100006090, symSize: 0x14 }
  - { offsetInCU: 0x144BB, offset: 0x144BB, size: 0x8, addend: 0x0, symName: __ZZN9TestSuiteC1EvENUlvE_8__invokeEv, symObjAddr: 0x3530, symBinAddr: 0x1000060A4, symSize: 0x20 }
  - { offsetInCU: 0x144D5, offset: 0x144D5, size: 0x8, addend: 0x0, symName: __ZZN9TestSuiteC1EvENKUlvE_clEv, symObjAddr: 0x3550, symBinAddr: 0x1000060C4, symSize: 0x50 }
  - { offsetInCU: 0x144FF, offset: 0x144FF, size: 0x8, addend: 0x0, symName: __ZNSt3__13mapINS_12basic_stringIcNS_11char_traitsIcEENS_9allocatorIcEEEE8TestCaseNS_4lessIS6_EENS4_INS_4pairIKS6_S7_EEEEED2B7v160006Ev, symObjAddr: 0x35A0, symBinAddr: 0x100006114, symSize: 0x2C }
  - { offsetInCU: 0x14529, offset: 0x14529, size: 0x8, addend: 0x0, symName: __ZNSt3__16__treeINS_12__value_typeINS_12basic_stringIcNS_11char_traitsIcEENS_9allocatorIcEEEE8TestCaseEENS_19__map_value_compareIS7_S9_NS_4lessIS7_EELb1EEENS5_IS9_EEED1Ev, symObjAddr: 0x35CC, symBinAddr: 0x100006140, symSize: 0x2C }
  - { offsetInCU: 0x14555, offset: 0x14555, size: 0x8, addend: 0x0, symName: __ZNSt3__16__treeINS_12__value_typeINS_12basic_stringIcNS_11char_traitsIcEENS_9allocatorIcEEEE8TestCaseEENS_19__map_value_compareIS7_S9_NS_4lessIS7_EELb1EEENS5_IS9_EEED2Ev, symObjAddr: 0x35F8, symBinAddr: 0x10000616C, symSize: 0x38 }
  - { offsetInCU: 0x14581, offset: 0x14581, size: 0x8, addend: 0x0, symName: __ZNSt3__16__treeINS_12__value_typeINS_12basic_stringIcNS_11char_traitsIcEENS_9allocatorIcEEEE8TestCaseEENS_19__map_value_compareIS7_S9_NS_4lessIS7_EELb1EEENS5_IS9_EEE7destroyEPNS_11__tree_nodeIS9_PvEE, symObjAddr: 0x3630, symBinAddr: 0x1000061A4, symSize: 0xAC }
  - { offsetInCU: 0x145CD, offset: 0x145CD, size: 0x8, addend: 0x0, symName: __ZNKSt3__16__treeINS_12__value_typeINS_12basic_stringIcNS_11char_traitsIcEENS_9allocatorIcEEEE8TestCaseEENS_19__map_value_compareIS7_S9_NS_4lessIS7_EELb1EEENS5_IS9_EEE6__rootB7v160006Ev, symObjAddr: 0x36DC, symBinAddr: 0x100006250, symSize: 0x28 }
  - { offsetInCU: 0x145F3, offset: 0x145F3, size: 0x8, addend: 0x0, symName: __ZNSt3__16__treeINS_12__value_typeINS_12basic_stringIcNS_11char_traitsIcEENS_9allocatorIcEEEE8TestCaseEENS_19__map_value_compareIS7_S9_NS_4lessIS7_EELb1EEENS5_IS9_EEE12__node_allocB7v160006Ev, symObjAddr: 0x3704, symBinAddr: 0x100006278, symSize: 0x28 }
  - { offsetInCU: 0x14619, offset: 0x14619, size: 0x8, addend: 0x0, symName: __ZNSt3__116allocator_traitsINS_9allocatorINS_11__tree_nodeINS_12__value_typeINS_12basic_stringIcNS_11char_traitsIcEENS1_IcEEEE8TestCaseEEPvEEEEE7destroyB7v160006INS_4pairIKS8_S9_EEvvEEvRSD_PT_, symObjAddr: 0x372C, symBinAddr: 0x1000062A0, symSize: 0x28 }
  - { offsetInCU: 0x14653, offset: 0x14653, size: 0x8, addend: 0x0, symName: __ZNSt3__122__tree_key_value_typesINS_12__value_typeINS_12basic_stringIcNS_11char_traitsIcEENS_9allocatorIcEEEE8TestCaseEEE9__get_ptrB7v160006ERS9_, symObjAddr: 0x3754, symBinAddr: 0x1000062C8, symSize: 0x24 }
  - { offsetInCU: 0x14677, offset: 0x14677, size: 0x8, addend: 0x0, symName: __ZNSt3__116allocator_traitsINS_9allocatorINS_11__tree_nodeINS_12__value_typeINS_12basic_stringIcNS_11char_traitsIcEENS1_IcEEEE8TestCaseEEPvEEEEE10deallocateB7v160006ERSD_PSC_m, symObjAddr: 0x3778, symBinAddr: 0x1000062EC, symSize: 0x34 }
  - { offsetInCU: 0x146B9, offset: 0x146B9, size: 0x8, addend: 0x0, symName: __ZNSt3__117__compressed_pairINS_15__tree_end_nodeIPNS_16__tree_node_baseIPvEEEENS_9allocatorINS_11__tree_nodeINS_12__value_typeINS_12basic_stringIcNS_11char_traitsIcEENS7_IcEEEE8TestCaseEES3_EEEEE6secondB7v160006Ev, symObjAddr: 0x37AC, symBinAddr: 0x100006320, symSize: 0x24 }
  - { offsetInCU: 0x146DF, offset: 0x146DF, size: 0x8, addend: 0x0, symName: __ZNSt3__122__compressed_pair_elemINS_9allocatorINS_11__tree_nodeINS_12__value_typeINS_12basic_stringIcNS_11char_traitsIcEENS1_IcEEEE8TestCaseEEPvEEEELi1ELb1EE5__getB7v160006Ev, symObjAddr: 0x37D0, symBinAddr: 0x100006344, symSize: 0x14 }
  - { offsetInCU: 0x14705, offset: 0x14705, size: 0x8, addend: 0x0, symName: __ZNSt3__14pairIKNS_12basic_stringIcNS_11char_traitsIcEENS_9allocatorIcEEEE8TestCaseED1Ev, symObjAddr: 0x37E4, symBinAddr: 0x100006358, symSize: 0x2C }
  - { offsetInCU: 0x14731, offset: 0x14731, size: 0x8, addend: 0x0, symName: __ZNSt3__14pairIKNS_12basic_stringIcNS_11char_traitsIcEENS_9allocatorIcEEEE8TestCaseED2Ev, symObjAddr: 0x3810, symBinAddr: 0x100006384, symSize: 0x38 }
  - { offsetInCU: 0x1475D, offset: 0x1475D, size: 0x8, addend: 0x0, symName: __ZN8TestCaseD1Ev, symObjAddr: 0x3848, symBinAddr: 0x1000063BC, symSize: 0x2C }
  - { offsetInCU: 0x14789, offset: 0x14789, size: 0x8, addend: 0x0, symName: __ZN8TestCaseD2Ev, symObjAddr: 0x3874, symBinAddr: 0x1000063E8, symSize: 0x44 }
  - { offsetInCU: 0x147B5, offset: 0x147B5, size: 0x8, addend: 0x0, symName: __ZNSt3__112__value_typeINS_12basic_stringIcNS_11char_traitsIcEENS_9allocatorIcEEEE8TestCaseE11__get_valueB7v160006Ev, symObjAddr: 0x38B8, symBinAddr: 0x10000642C, symSize: 0x24 }
  - { offsetInCU: 0x147DB, offset: 0x147DB, size: 0x8, addend: 0x0, symName: __ZNSt3__19allocatorINS_11__tree_nodeINS_12__value_typeINS_12basic_stringIcNS_11char_traitsIcEENS0_IcEEEE8TestCaseEEPvEEE10deallocateB7v160006EPSB_m, symObjAddr: 0x3914, symBinAddr: 0x100006488, symSize: 0x44 }
  - { offsetInCU: 0x1481D, offset: 0x1481D, size: 0x8, addend: 0x0, symName: __ZNKSt3__16__treeINS_12__value_typeINS_12basic_stringIcNS_11char_traitsIcEENS_9allocatorIcEEEE8TestCaseEENS_19__map_value_compareIS7_S9_NS_4lessIS7_EELb1EEENS5_IS9_EEE10__end_nodeB7v160006Ev, symObjAddr: 0x3A80, symBinAddr: 0x1000065F4, symSize: 0x2C }
  - { offsetInCU: 0x14843, offset: 0x14843, size: 0x8, addend: 0x0, symName: __ZNKSt3__117__compressed_pairINS_15__tree_end_nodeIPNS_16__tree_node_baseIPvEEEENS_9allocatorINS_11__tree_nodeINS_12__value_typeINS_12basic_stringIcNS_11char_traitsIcEENS7_IcEEEE8TestCaseEES3_EEEEE5firstB7v160006Ev, symObjAddr: 0x3AAC, symBinAddr: 0x100006620, symSize: 0x24 }
  - { offsetInCU: 0x14869, offset: 0x14869, size: 0x8, addend: 0x0, symName: __ZNKSt3__122__compressed_pair_elemINS_15__tree_end_nodeIPNS_16__tree_node_baseIPvEEEELi0ELb0EE5__getB7v160006Ev, symObjAddr: 0x3AD0, symBinAddr: 0x100006644, symSize: 0x14 }
  - { offsetInCU: 0x1488F, offset: 0x1488F, size: 0x8, addend: 0x0, symName: __ZNKSt3__114__map_iteratorINS_15__tree_iteratorINS_12__value_typeINS_12basic_stringIcNS_11char_traitsIcEENS_9allocatorIcEEEE8TestCaseEEPNS_11__tree_nodeISA_PvEElEEEdeB7v160006Ev, symObjAddr: 0x3B14, symBinAddr: 0x100006688, symSize: 0x28 }
  - { offsetInCU: 0x148B5, offset: 0x148B5, size: 0x8, addend: 0x0, symName: __ZNSt3__114__map_iteratorINS_15__tree_iteratorINS_12__value_typeINS_12basic_stringIcNS_11char_traitsIcEENS_9allocatorIcEEEE8TestCaseEEPNS_11__tree_nodeISA_PvEElEEEppB7v160006Ev, symObjAddr: 0x3B3C, symBinAddr: 0x1000066B0, symSize: 0x2C }
  - { offsetInCU: 0x148DB, offset: 0x148DB, size: 0x8, addend: 0x0, symName: __ZNKSt3__115__tree_iteratorINS_12__value_typeINS_12basic_stringIcNS_11char_traitsIcEENS_9allocatorIcEEEE8TestCaseEEPNS_11__tree_nodeIS9_PvEElEptB7v160006Ev, symObjAddr: 0x3BCC, symBinAddr: 0x100006740, symSize: 0x2C }
  - { offsetInCU: 0x14901, offset: 0x14901, size: 0x8, addend: 0x0, symName: __ZNSt3__114pointer_traitsIPNS_12__value_typeINS_12basic_stringIcNS_11char_traitsIcEENS_9allocatorIcEEEE8TestCaseEEE10pointer_toB7v160006ERS9_, symObjAddr: 0x3BF8, symBinAddr: 0x10000676C, symSize: 0x14 }
  - { offsetInCU: 0x14924, offset: 0x14924, size: 0x8, addend: 0x0, symName: __ZNKSt3__115__tree_iteratorINS_12__value_typeINS_12basic_stringIcNS_11char_traitsIcEENS_9allocatorIcEEEE8TestCaseEEPNS_11__tree_nodeIS9_PvEElE8__get_npB7v160006Ev, symObjAddr: 0x3C0C, symBinAddr: 0x100006780, symSize: 0x18 }
  - { offsetInCU: 0x1494A, offset: 0x1494A, size: 0x8, addend: 0x0, symName: __ZNSt3__115__tree_iteratorINS_12__value_typeINS_12basic_stringIcNS_11char_traitsIcEENS_9allocatorIcEEEE8TestCaseEEPNS_11__tree_nodeIS9_PvEElEppB7v160006Ev, symObjAddr: 0x3C24, symBinAddr: 0x100006798, symSize: 0x38 }
  - { offsetInCU: 0x14970, offset: 0x14970, size: 0x8, addend: 0x0, symName: __ZNKSt3__116__tree_node_baseIPvE15__parent_unsafeB7v160006Ev, symObjAddr: 0x3D58, symBinAddr: 0x1000068CC, symSize: 0x18 }
  - { offsetInCU: 0x14996, offset: 0x14996, size: 0x8, addend: 0x0, symName: __ZN9ExitSuiteC2Ei, symObjAddr: 0x3D70, symBinAddr: 0x1000068E4, symSize: 0x50 }
  - { offsetInCU: 0x149CF, offset: 0x149CF, size: 0x8, addend: 0x0, symName: __ZNSt9exceptionC2B7v160006Ev, symObjAddr: 0x3DC0, symBinAddr: 0x100006934, symSize: 0x24 }
  - { offsetInCU: 0x149F9, offset: 0x149F9, size: 0x8, addend: 0x0, symName: __ZN9ExitSuiteD0Ev, symObjAddr: 0x3DE4, symBinAddr: 0x100006958, symSize: 0x30 }
  - { offsetInCU: 0x14A26, offset: 0x14A26, size: 0x8, addend: 0x0, symName: __ZN9ExitSuiteD2Ev, symObjAddr: 0x3E14, symBinAddr: 0x100006988, symSize: 0x2C }
  - { offsetInCU: 0x14A53, offset: 0x14A53, size: 0x8, addend: 0x0, symName: __ZN11TestFailureC2ENSt3__112basic_stringIcNS0_11char_traitsIcEENS0_9allocatorIcEEEEiPKc, symObjAddr: 0x3E40, symBinAddr: 0x1000069B4, symSize: 0x4C }
  - { offsetInCU: 0x14AA8, offset: 0x14AA8, size: 0x8, addend: 0x0, symName: __ZNSt3__112basic_stringIcNS_11char_traitsIcEENS_9allocatorIcEEEC1B7v160006EOS5_, symObjAddr: 0x3E8C, symBinAddr: 0x100006A00, symSize: 0x34 }
  - { offsetInCU: 0x14AE1, offset: 0x14AE1, size: 0x8, addend: 0x0, symName: __ZNSt3__112basic_stringIcNS_11char_traitsIcEENS_9allocatorIcEEEC2B7v160006EOS5_, symObjAddr: 0x3EC0, symBinAddr: 0x100006A34, symSize: 0x88 }
  - { offsetInCU: 0x14B1A, offset: 0x14B1A, size: 0x8, addend: 0x0, symName: __ZNSt3__112basic_stringIcNS_11char_traitsIcEENS_9allocatorIcEEE14__default_initB7v160006Ev, symObjAddr: 0x3F48, symBinAddr: 0x100006ABC, symSize: 0x40 }
  - { offsetInCU: 0x14B40, offset: 0x14B40, size: 0x8, addend: 0x0, symName: __ZNKSt3__112basic_stringIcNS_11char_traitsIcEENS_9allocatorIcEEE9__is_longB7v160006Ev, symObjAddr: 0x3F98, symBinAddr: 0x100006B0C, symSize: 0x38 }
  - { offsetInCU: 0x14B66, offset: 0x14B66, size: 0x8, addend: 0x0, symName: __ZNSt3__117__compressed_pairINS_12basic_stringIcNS_11char_traitsIcEENS_9allocatorIcEEE5__repES5_E5firstB7v160006Ev, symObjAddr: 0x3FE4, symBinAddr: 0x100006B58, symSize: 0x24 }
  - { offsetInCU: 0x14B8C, offset: 0x14B8C, size: 0x8, addend: 0x0, symName: __ZNSt3__122__compressed_pair_elemINS_12basic_stringIcNS_11char_traitsIcEENS_9allocatorIcEEE5__repELi0ELb0EE5__getB7v160006Ev, symObjAddr: 0x4008, symBinAddr: 0x100006B7C, symSize: 0x14 }
  - { offsetInCU: 0x14BB2, offset: 0x14BB2, size: 0x8, addend: 0x0, symName: __ZNKSt3__117__compressed_pairINS_12basic_stringIcNS_11char_traitsIcEENS_9allocatorIcEEE5__repES5_E5firstB7v160006Ev, symObjAddr: 0x401C, symBinAddr: 0x100006B90, symSize: 0x24 }
  - { offsetInCU: 0x14BD8, offset: 0x14BD8, size: 0x8, addend: 0x0, symName: __ZNKSt3__122__compressed_pair_elemINS_12basic_stringIcNS_11char_traitsIcEENS_9allocatorIcEEE5__repELi0ELb0EE5__getB7v160006Ev, symObjAddr: 0x4040, symBinAddr: 0x100006BB4, symSize: 0x14 }
  - { offsetInCU: 0x14BFE, offset: 0x14BFE, size: 0x8, addend: 0x0, symName: __ZN11TestFailureD2Ev, symObjAddr: 0x4054, symBinAddr: 0x100006BC8, symSize: 0x2C }
  - { offsetInCU: 0x14C2A, offset: 0x14C2A, size: 0x8, addend: 0x0, symName: __ZN14TestRegistererC2ERKNSt3__112basic_stringIcNS0_11char_traitsIcEENS0_9allocatorIcEEEEPFvvE, symObjAddr: 0x4080, symBinAddr: 0x100006BF4, symSize: 0x40 }
  - { offsetInCU: 0x14C70, offset: 0x14C70, size: 0x8, addend: 0x0, symName: __ZN9TestSuite8add_testERKNSt3__112basic_stringIcNS0_11char_traitsIcEENS0_9allocatorIcEEEEPFvvE, symObjAddr: 0x40C0, symBinAddr: 0x100006C34, symSize: 0xD8 }
  - { offsetInCU: 0x14CB2, offset: 0x14CB2, size: 0x8, addend: 0x0, symName: __ZNSt3__13mapINS_12basic_stringIcNS_11char_traitsIcEENS_9allocatorIcEEEE8TestCaseNS_4lessIS6_EENS4_INS_4pairIKS6_S7_EEEEE6insertB7v160006EOSC_, symObjAddr: 0x4198, symBinAddr: 0x100006D0C, symSize: 0x4C }
  - { offsetInCU: 0x14CE7, offset: 0x14CE7, size: 0x8, addend: 0x0, symName: __ZN8TestCaseC1ERKNSt3__112basic_stringIcNS0_11char_traitsIcEENS0_9allocatorIcEEEEPFvvE, symObjAddr: 0x41E4, symBinAddr: 0x100006D58, symSize: 0x3C }
  - { offsetInCU: 0x14D33, offset: 0x14D33, size: 0x8, addend: 0x0, symName: __ZNSt3__14pairIKNS_12basic_stringIcNS_11char_traitsIcEENS_9allocatorIcEEEE8TestCaseEC1B7v160006IRS7_S8_LPv0EEEOT_OT0_, symObjAddr: 0x4220, symBinAddr: 0x100006D94, symSize: 0x3C }
  - { offsetInCU: 0x14D91, offset: 0x14D91, size: 0x8, addend: 0x0, symName: __ZNSt3__16__treeINS_12__value_typeINS_12basic_stringIcNS_11char_traitsIcEENS_9allocatorIcEEEE8TestCaseEENS_19__map_value_compareIS7_S9_NS_4lessIS7_EELb1EEENS5_IS9_EEE15__insert_uniqueB7v160006EONS_4pairIKS7_S8_EE, symObjAddr: 0x425C, symBinAddr: 0x100006DD0, symSize: 0x50 }
  - { offsetInCU: 0x14DC6, offset: 0x14DC6, size: 0x8, addend: 0x0, symName: __ZNSt3__14pairINS_14__map_iteratorINS_15__tree_iteratorINS_12__value_typeINS_12basic_stringIcNS_11char_traitsIcEENS_9allocatorIcEEEE8TestCaseEEPNS_11__tree_nodeISB_PvEElEEEEbEC1B7v160006ISG_bLSD_0EEEONS0_IT_T0_EE, symObjAddr: 0x42AC, symBinAddr: 0x100006E20, symSize: 0x34 }
  - { offsetInCU: 0x14E17, offset: 0x14E17, size: 0x8, addend: 0x0, symName: __ZNSt3__16__treeINS_12__value_typeINS_12basic_stringIcNS_11char_traitsIcEENS_9allocatorIcEEEE8TestCaseEENS_19__map_value_compareIS7_S9_NS_4lessIS7_EELb1EEENS5_IS9_EEE25__emplace_unique_key_argsIS7_JNS_4pairIKS7_S8_EEEEENSH_INS_15__tree_iteratorIS9_PNS_11__tree_nodeIS9_PvEElEEbEERKT_DpOT0_, symObjAddr: 0x42E0, symBinAddr: 0x100006E54, symSize: 0xF0 }
  - { offsetInCU: 0x14EC3, offset: 0x14EC3, size: 0x8, addend: 0x0, symName: __ZNSt3__122__tree_key_value_typesINS_12__value_typeINS_12basic_stringIcNS_11char_traitsIcEENS_9allocatorIcEEEE8TestCaseEEE9__get_keyB7v160006INS_4pairIKS7_S8_EEEENS_9enable_ifIXsr17__is_same_uncvrefIT_SE_EE5valueERSD_E4typeERSG_, symObjAddr: 0x43D0, symBinAddr: 0x100006F44, symSize: 0x14 }
  - { offsetInCU: 0x14EF0, offset: 0x14EF0, size: 0x8, addend: 0x0, symName: __ZNSt3__16__treeINS_12__value_typeINS_12basic_stringIcNS_11char_traitsIcEENS_9allocatorIcEEEE8TestCaseEENS_19__map_value_compareIS7_S9_NS_4lessIS7_EELb1EEENS5_IS9_EEE12__find_equalIS7_EERPNS_16__tree_node_baseIPvEERPNS_15__tree_end_nodeISK_EERKT_, symObjAddr: 0x43E4, symBinAddr: 0x100006F58, symSize: 0x184 }
  - { offsetInCU: 0x14F5D, offset: 0x14F5D, size: 0x8, addend: 0x0, symName: __ZNSt3__16__treeINS_12__value_typeINS_12basic_stringIcNS_11char_traitsIcEENS_9allocatorIcEEEE8TestCaseEENS_19__map_value_compareIS7_S9_NS_4lessIS7_EELb1EEENS5_IS9_EEE16__construct_nodeIJNS_4pairIKS7_S8_EEEEENS_10unique_ptrINS_11__tree_nodeIS9_PvEENS_22__tree_node_destructorINS5_ISN_EEEEEEDpOT_, symObjAddr: 0x4568, symBinAddr: 0x1000070DC, symSize: 0x110 }
  - { offsetInCU: 0x14FBE, offset: 0x14FBE, size: 0x8, addend: 0x0, symName: __ZNSt3__16__treeINS_12__value_typeINS_12basic_stringIcNS_11char_traitsIcEENS_9allocatorIcEEEE8TestCaseEENS_19__map_value_compareIS7_S9_NS_4lessIS7_EELb1EEENS5_IS9_EEE16__insert_node_atEPNS_15__tree_end_nodeIPNS_16__tree_node_baseIPvEEEERSK_SK_, symObjAddr: 0x4678, symBinAddr: 0x1000071EC, symSize: 0xCC }
  - { offsetInCU: 0x15013, offset: 0x15013, size: 0x8, addend: 0x0, symName: __ZNKSt3__110unique_ptrINS_11__tree_nodeINS_12__value_typeINS_12basic_stringIcNS_11char_traitsIcEENS_9allocatorIcEEEE8TestCaseEEPvEENS_22__tree_node_destructorINS6_ISC_EEEEE3getB7v160006Ev, symObjAddr: 0x4744, symBinAddr: 0x1000072B8, symSize: 0x28 }
  - { offsetInCU: 0x15039, offset: 0x15039, size: 0x8, addend: 0x0, symName: __ZNSt3__110unique_ptrINS_11__tree_nodeINS_12__value_typeINS_12basic_stringIcNS_11char_traitsIcEENS_9allocatorIcEEEE8TestCaseEEPvEENS_22__tree_node_destructorINS6_ISC_EEEEE7releaseB7v160006Ev, symObjAddr: 0x476C, symBinAddr: 0x1000072E0, symSize: 0x44 }
  - { offsetInCU: 0x1506E, offset: 0x1506E, size: 0x8, addend: 0x0, symName: __ZNSt3__110unique_ptrINS_11__tree_nodeINS_12__value_typeINS_12basic_stringIcNS_11char_traitsIcEENS_9allocatorIcEEEE8TestCaseEEPvEENS_22__tree_node_destructorINS6_ISC_EEEEED1B7v160006Ev, symObjAddr: 0x47B0, symBinAddr: 0x100007324, symSize: 0x2C }
  - { offsetInCU: 0x15098, offset: 0x15098, size: 0x8, addend: 0x0, symName: __ZNSt3__115__tree_iteratorINS_12__value_typeINS_12basic_stringIcNS_11char_traitsIcEENS_9allocatorIcEEEE8TestCaseEEPNS_11__tree_nodeIS9_PvEElEC1B7v160006ESD_, symObjAddr: 0x47DC, symBinAddr: 0x100007350, symSize: 0x34 }
  - { offsetInCU: 0x150D7, offset: 0x150D7, size: 0x8, addend: 0x0, symName: __ZNSt3__14pairINS_15__tree_iteratorINS_12__value_typeINS_12basic_stringIcNS_11char_traitsIcEENS_9allocatorIcEEEE8TestCaseEEPNS_11__tree_nodeISA_PvEElEEbEC1B7v160006ISF_RbLSC_0EEEOT_OT0_, symObjAddr: 0x4810, symBinAddr: 0x100007384, symSize: 0x3C }
  - { offsetInCU: 0x15135, offset: 0x15135, size: 0x8, addend: 0x0, symName: __ZNKSt3__16__treeINS_12__value_typeINS_12basic_stringIcNS_11char_traitsIcEENS_9allocatorIcEEEE8TestCaseEENS_19__map_value_compareIS7_S9_NS_4lessIS7_EELb1EEENS5_IS9_EEE10__root_ptrEv, symObjAddr: 0x484C, symBinAddr: 0x1000073C0, symSize: 0x24 }
  - { offsetInCU: 0x1515B, offset: 0x1515B, size: 0x8, addend: 0x0, symName: __ZNSt3__16__treeINS_12__value_typeINS_12basic_stringIcNS_11char_traitsIcEENS_9allocatorIcEEEE8TestCaseEENS_19__map_value_compareIS7_S9_NS_4lessIS7_EELb1EEENS5_IS9_EEE10value_compB7v160006Ev, symObjAddr: 0x4870, symBinAddr: 0x1000073E4, symSize: 0x28 }
  - { offsetInCU: 0x15181, offset: 0x15181, size: 0x8, addend: 0x0, symName: __ZNKSt3__119__map_value_compareINS_12basic_stringIcNS_11char_traitsIcEENS_9allocatorIcEEEENS_12__value_typeIS6_8TestCaseEENS_4lessIS6_EELb1EEclB7v160006ERKS6_RKS9_, symObjAddr: 0x4898, symBinAddr: 0x10000740C, symSize: 0x50 }
  - { offsetInCU: 0x151C5, offset: 0x151C5, size: 0x8, addend: 0x0, symName: __ZNKSt3__119__map_value_compareINS_12basic_stringIcNS_11char_traitsIcEENS_9allocatorIcEEEENS_12__value_typeIS6_8TestCaseEENS_4lessIS6_EELb1EEclB7v160006ERKS9_RKS6_, symObjAddr: 0x48E8, symBinAddr: 0x10000745C, symSize: 0x48 }
  - { offsetInCU: 0x15209, offset: 0x15209, size: 0x8, addend: 0x0, symName: __ZNSt3__117__compressed_pairImNS_19__map_value_compareINS_12basic_stringIcNS_11char_traitsIcEENS_9allocatorIcEEEENS_12__value_typeIS7_8TestCaseEENS_4lessIS7_EELb1EEEE6secondB7v160006Ev, symObjAddr: 0x4930, symBinAddr: 0x1000074A4, symSize: 0x24 }
  - { offsetInCU: 0x1522F, offset: 0x1522F, size: 0x8, addend: 0x0, symName: __ZNSt3__122__compressed_pair_elemINS_19__map_value_compareINS_12basic_stringIcNS_11char_traitsIcEENS_9allocatorIcEEEENS_12__value_typeIS7_8TestCaseEENS_4lessIS7_EELb1EEELi1ELb1EE5__getB7v160006Ev, symObjAddr: 0x4954, symBinAddr: 0x1000074C8, symSize: 0x14 }
  - { offsetInCU: 0x15255, offset: 0x15255, size: 0x8, addend: 0x0, symName: __ZNKSt3__14lessINS_12basic_stringIcNS_11char_traitsIcEENS_9allocatorIcEEEEEclB7v160006ERKS6_S9_, symObjAddr: 0x4968, symBinAddr: 0x1000074DC, symSize: 0x34 }
  - { offsetInCU: 0x15299, offset: 0x15299, size: 0x8, addend: 0x0, symName: __ZNKSt3__112__value_typeINS_12basic_stringIcNS_11char_traitsIcEENS_9allocatorIcEEEE8TestCaseE11__get_valueB7v160006Ev, symObjAddr: 0x499C, symBinAddr: 0x100007510, symSize: 0x24 }
  - { offsetInCU: 0x152BF, offset: 0x152BF, size: 0x8, addend: 0x0, symName: __ZNKSt3__112basic_stringIcNS_11char_traitsIcEENS_9allocatorIcEEE7compareB7v160006ERKS5_, symObjAddr: 0x49F8, symBinAddr: 0x10000756C, symSize: 0x4C }
  - { offsetInCU: 0x152F6, offset: 0x152F6, size: 0x8, addend: 0x0, symName: __ZNKSt3__112basic_stringIcNS_11char_traitsIcEENS_9allocatorIcEEE7compareINS_17basic_string_viewIcS2_EEEENS_9enable_ifIXsr33__can_be_converted_to_string_viewIcS2_T_EE5valueEiE4typeERKSA_, symObjAddr: 0x4A44, symBinAddr: 0x1000075B8, symSize: 0x12C }
  - { offsetInCU: 0x15373, offset: 0x15373, size: 0x8, addend: 0x0, symName: __ZNKSt3__112basic_stringIcNS_11char_traitsIcEENS_9allocatorIcEEEcvNS_17basic_string_viewIcS2_EEB7v160006Ev, symObjAddr: 0x4B70, symBinAddr: 0x1000076E4, symSize: 0x50 }
  - { offsetInCU: 0x15399, offset: 0x15399, size: 0x8, addend: 0x0, symName: __ZNKSt3__112basic_stringIcNS_11char_traitsIcEENS_9allocatorIcEEE4sizeB7v160006Ev, symObjAddr: 0x4BC0, symBinAddr: 0x100007734, symSize: 0x54 }
  - { offsetInCU: 0x153BF, offset: 0x153BF, size: 0x8, addend: 0x0, symName: __ZNKSt3__117basic_string_viewIcNS_11char_traitsIcEEE4sizeB7v160006Ev, symObjAddr: 0x4C14, symBinAddr: 0x100007788, symSize: 0x18 }
  - { offsetInCU: 0x153E5, offset: 0x153E5, size: 0x8, addend: 0x0, symName: __ZNSt3__111char_traitsIcE7compareEPKcS3_m, symObjAddr: 0x4C2C, symBinAddr: 0x1000077A0, symSize: 0x6C }
  - { offsetInCU: 0x15424, offset: 0x15424, size: 0x8, addend: 0x0, symName: __ZNKSt3__112basic_stringIcNS_11char_traitsIcEENS_9allocatorIcEEE4dataB7v160006Ev, symObjAddr: 0x4C98, symBinAddr: 0x10000780C, symSize: 0x28 }
  - { offsetInCU: 0x1544A, offset: 0x1544A, size: 0x8, addend: 0x0, symName: __ZNKSt3__117basic_string_viewIcNS_11char_traitsIcEEE4dataB7v160006Ev, symObjAddr: 0x4CC0, symBinAddr: 0x100007834, symSize: 0x18 }
  - { offsetInCU: 0x15470, offset: 0x15470, size: 0x8, addend: 0x0, symName: __ZNKSt3__112basic_stringIcNS_11char_traitsIcEENS_9allocatorIcEEE15__get_long_sizeB7v160006Ev, symObjAddr: 0x4D04, symBinAddr: 0x100007878, symSize: 0x28 }
  - { offsetInCU: 0x15496, offset: 0x15496, size: 0x8, addend: 0x0, symName: __ZNKSt3__112basic_stringIcNS_11char_traitsIcEENS_9allocatorIcEEE16__get_short_sizeB7v160006Ev, symObjAddr: 0x4D2C, symBinAddr: 0x1000078A0, symSize: 0x34 }
  - { offsetInCU: 0x154BC, offset: 0x154BC, size: 0x8, addend: 0x0, symName: __ZNKSt3__112basic_stringIcNS_11char_traitsIcEENS_9allocatorIcEEE13__get_pointerB7v160006Ev, symObjAddr: 0x4DA8, symBinAddr: 0x10000791C, symSize: 0x54 }
  - { offsetInCU: 0x154E2, offset: 0x154E2, size: 0x8, addend: 0x0, symName: __ZNKSt3__112basic_stringIcNS_11char_traitsIcEENS_9allocatorIcEEE18__get_long_pointerB7v160006Ev, symObjAddr: 0x4DFC, symBinAddr: 0x100007970, symSize: 0x28 }
  - { offsetInCU: 0x15508, offset: 0x15508, size: 0x8, addend: 0x0, symName: __ZNKSt3__112basic_stringIcNS_11char_traitsIcEENS_9allocatorIcEEE19__get_short_pointerB7v160006Ev, symObjAddr: 0x4E24, symBinAddr: 0x100007998, symSize: 0x28 }
  - { offsetInCU: 0x1552E, offset: 0x1552E, size: 0x8, addend: 0x0, symName: __ZNSt3__114pointer_traitsIPKcE10pointer_toB7v160006ERS1_, symObjAddr: 0x4E4C, symBinAddr: 0x1000079C0, symSize: 0x14 }
  - { offsetInCU: 0x1555B, offset: 0x1555B, size: 0x8, addend: 0x0, symName: __ZNKSt3__16__lessImmEclB7v160006ERKmS3_, symObjAddr: 0x4EB4, symBinAddr: 0x100007A28, symSize: 0x34 }
  - { offsetInCU: 0x1559D, offset: 0x1559D, size: 0x8, addend: 0x0, symName: __ZNSt3__117basic_string_viewIcNS_11char_traitsIcEEEC1B7v160006EPKcm, symObjAddr: 0x4EE8, symBinAddr: 0x100007A5C, symSize: 0x3C }
  - { offsetInCU: 0x155E5, offset: 0x155E5, size: 0x8, addend: 0x0, symName: __ZNSt3__117basic_string_viewIcNS_11char_traitsIcEEEC2B7v160006EPKcm, symObjAddr: 0x4F24, symBinAddr: 0x100007A98, symSize: 0x50 }
  - { offsetInCU: 0x1562D, offset: 0x1562D, size: 0x8, addend: 0x0, symName: __ZNSt3__116allocator_traitsINS_9allocatorINS_11__tree_nodeINS_12__value_typeINS_12basic_stringIcNS_11char_traitsIcEENS1_IcEEEE8TestCaseEEPvEEEEE8allocateB7v160006ERSD_m, symObjAddr: 0x4FAC, symBinAddr: 0x100007B20, symSize: 0x2C }
  - { offsetInCU: 0x15660, offset: 0x15660, size: 0x8, addend: 0x0, symName: __ZNSt3__122__tree_node_destructorINS_9allocatorINS_11__tree_nodeINS_12__value_typeINS_12basic_stringIcNS_11char_traitsIcEENS1_IcEEEE8TestCaseEEPvEEEEEC1B7v160006ERSD_b, symObjAddr: 0x4FD8, symBinAddr: 0x100007B4C, symSize: 0x48 }
  - { offsetInCU: 0x156AE, offset: 0x156AE, size: 0x8, addend: 0x0, symName: __ZNSt3__110unique_ptrINS_11__tree_nodeINS_12__value_typeINS_12basic_stringIcNS_11char_traitsIcEENS_9allocatorIcEEEE8TestCaseEEPvEENS_22__tree_node_destructorINS6_ISC_EEEEEC1B7v160006ILb1EvEEPSC_NS_16__dependent_typeINS_27__unique_ptr_deleter_sfinaeISF_EEXT_EE20__good_rval_ref_typeE, symObjAddr: 0x5020, symBinAddr: 0x100007B94, symSize: 0x3C }
  - { offsetInCU: 0x156FF, offset: 0x156FF, size: 0x8, addend: 0x0, symName: __ZNSt3__116allocator_traitsINS_9allocatorINS_11__tree_nodeINS_12__value_typeINS_12basic_stringIcNS_11char_traitsIcEENS1_IcEEEE8TestCaseEEPvEEEEE9constructB7v160006INS_4pairIKS8_S9_EEJSI_EvEEvRSD_PT_DpOT0_, symObjAddr: 0x505C, symBinAddr: 0x100007BD0, symSize: 0x34 }
  - { offsetInCU: 0x15756, offset: 0x15756, size: 0x8, addend: 0x0, symName: __ZNKSt3__110unique_ptrINS_11__tree_nodeINS_12__value_typeINS_12basic_stringIcNS_11char_traitsIcEENS_9allocatorIcEEEE8TestCaseEEPvEENS_22__tree_node_destructorINS6_ISC_EEEEEptB7v160006Ev, symObjAddr: 0x5090, symBinAddr: 0x100007C04, symSize: 0x28 }
  - { offsetInCU: 0x1577C, offset: 0x1577C, size: 0x8, addend: 0x0, symName: __ZNSt3__110unique_ptrINS_11__tree_nodeINS_12__value_typeINS_12basic_stringIcNS_11char_traitsIcEENS_9allocatorIcEEEE8TestCaseEEPvEENS_22__tree_node_destructorINS6_ISC_EEEEE11get_deleterB7v160006Ev, symObjAddr: 0x50B8, symBinAddr: 0x100007C2C, symSize: 0x24 }
  - { offsetInCU: 0x157A2, offset: 0x157A2, size: 0x8, addend: 0x0, symName: __ZNSt3__19allocatorINS_11__tree_nodeINS_12__value_typeINS_12basic_stringIcNS_11char_traitsIcEENS0_IcEEEE8TestCaseEEPvEEE8allocateB7v160006Em, symObjAddr: 0x50DC, symBinAddr: 0x100007C50, symSize: 0x5C }
  - { offsetInCU: 0x157E0, offset: 0x157E0, size: 0x8, addend: 0x0, symName: __ZNSt3__116allocator_traitsINS_9allocatorINS_11__tree_nodeINS_12__value_typeINS_12basic_stringIcNS_11char_traitsIcEENS1_IcEEEE8TestCaseEEPvEEEEE8max_sizeB7v160006ISD_vEEmRKSD_, symObjAddr: 0x5138, symBinAddr: 0x100007CAC, symSize: 0x24 }
  - { offsetInCU: 0x1580E, offset: 0x1580E, size: 0x8, addend: 0x0, symName: __ZNKSt3__19allocatorINS_11__tree_nodeINS_12__value_typeINS_12basic_stringIcNS_11char_traitsIcEENS0_IcEEEE8TestCaseEEPvEEE8max_sizeB7v160006Ev, symObjAddr: 0x51F0, symBinAddr: 0x100007D64, symSize: 0x18 }
  - { offsetInCU: 0x15834, offset: 0x15834, size: 0x8, addend: 0x0, symName: __ZNSt3__122__tree_node_destructorINS_9allocatorINS_11__tree_nodeINS_12__value_typeINS_12basic_stringIcNS_11char_traitsIcEENS1_IcEEEE8TestCaseEEPvEEEEEC2B7v160006ERSD_b, symObjAddr: 0x5258, symBinAddr: 0x100007DCC, symSize: 0x38 }
  - { offsetInCU: 0x1587C, offset: 0x1587C, size: 0x8, addend: 0x0, symName: __ZNSt3__110unique_ptrINS_11__tree_nodeINS_12__value_typeINS_12basic_stringIcNS_11char_traitsIcEENS_9allocatorIcEEEE8TestCaseEEPvEENS_22__tree_node_destructorINS6_ISC_EEEEEC2B7v160006ILb1EvEEPSC_NS_16__dependent_typeINS_27__unique_ptr_deleter_sfinaeISF_EEXT_EE20__good_rval_ref_typeE, symObjAddr: 0x5290, symBinAddr: 0x100007E04, symSize: 0x48 }
  - { offsetInCU: 0x158CD, offset: 0x158CD, size: 0x8, addend: 0x0, symName: __ZNSt3__117__compressed_pairIPNS_11__tree_nodeINS_12__value_typeINS_12basic_stringIcNS_11char_traitsIcEENS_9allocatorIcEEEE8TestCaseEEPvEENS_22__tree_node_destructorINS6_ISC_EEEEEC1B7v160006IRSD_SG_EEOT_OT0_, symObjAddr: 0x52D8, symBinAddr: 0x100007E4C, symSize: 0x3C }
  - { offsetInCU: 0x15925, offset: 0x15925, size: 0x8, addend: 0x0, symName: __ZNSt3__117__compressed_pairIPNS_11__tree_nodeINS_12__value_typeINS_12basic_stringIcNS_11char_traitsIcEENS_9allocatorIcEEEE8TestCaseEEPvEENS_22__tree_node_destructorINS6_ISC_EEEEEC2B7v160006IRSD_SG_EEOT_OT0_, symObjAddr: 0x5314, symBinAddr: 0x100007E88, symSize: 0x48 }
  - { offsetInCU: 0x1597D, offset: 0x1597D, size: 0x8, addend: 0x0, symName: __ZNSt3__122__compressed_pair_elemIPNS_11__tree_nodeINS_12__value_typeINS_12basic_stringIcNS_11char_traitsIcEENS_9allocatorIcEEEE8TestCaseEEPvEELi0ELb0EEC2B7v160006IRSD_vEEOT_, symObjAddr: 0x535C, symBinAddr: 0x100007ED0, symSize: 0x24 }
  - { offsetInCU: 0x159BF, offset: 0x159BF, size: 0x8, addend: 0x0, symName: __ZNSt3__122__compressed_pair_elemINS_22__tree_node_destructorINS_9allocatorINS_11__tree_nodeINS_12__value_typeINS_12basic_stringIcNS_11char_traitsIcEENS2_IcEEEE8TestCaseEEPvEEEEEELi1ELb0EEC2B7v160006ISF_vEEOT_, symObjAddr: 0x5380, symBinAddr: 0x100007EF4, symSize: 0x24 }
  - { offsetInCU: 0x15A01, offset: 0x15A01, size: 0x8, addend: 0x0, symName: __ZNSt3__19allocatorINS_11__tree_nodeINS_12__value_typeINS_12basic_stringIcNS_11char_traitsIcEENS0_IcEEEE8TestCaseEEPvEEE9constructB7v160006INS_4pairIKS7_S8_EEJSG_EEEvPT_DpOT0_, symObjAddr: 0x53A4, symBinAddr: 0x100007F18, symSize: 0x30 }
  - { offsetInCU: 0x15A57, offset: 0x15A57, size: 0x8, addend: 0x0, symName: __ZNSt3__14pairIKNS_12basic_stringIcNS_11char_traitsIcEENS_9allocatorIcEEEE8TestCaseEC1EOS9_, symObjAddr: 0x53D4, symBinAddr: 0x100007F48, symSize: 0x34 }
  - { offsetInCU: 0x15A8C, offset: 0x15A8C, size: 0x8, addend: 0x0, symName: __ZNSt3__14pairIKNS_12basic_stringIcNS_11char_traitsIcEENS_9allocatorIcEEEE8TestCaseEC2EOS9_, symObjAddr: 0x5408, symBinAddr: 0x100007F7C, symSize: 0x48 }
  - { offsetInCU: 0x15AC1, offset: 0x15AC1, size: 0x8, addend: 0x0, symName: __ZN8TestCaseC1EOS_, symObjAddr: 0x5450, symBinAddr: 0x100007FC4, symSize: 0x34 }
  - { offsetInCU: 0x15AF6, offset: 0x15AF6, size: 0x8, addend: 0x0, symName: __ZN8TestCaseC2EOS_, symObjAddr: 0x5484, symBinAddr: 0x100007FF8, symSize: 0x68 }
  - { offsetInCU: 0x15B2B, offset: 0x15B2B, size: 0x8, addend: 0x0, symName: __ZNKSt3__117__compressed_pairIPNS_11__tree_nodeINS_12__value_typeINS_12basic_stringIcNS_11char_traitsIcEENS_9allocatorIcEEEE8TestCaseEEPvEENS_22__tree_node_destructorINS6_ISC_EEEEE5firstB7v160006Ev, symObjAddr: 0x54EC, symBinAddr: 0x100008060, symSize: 0x24 }
  - { offsetInCU: 0x15B51, offset: 0x15B51, size: 0x8, addend: 0x0, symName: __ZNKSt3__122__compressed_pair_elemIPNS_11__tree_nodeINS_12__value_typeINS_12basic_stringIcNS_11char_traitsIcEENS_9allocatorIcEEEE8TestCaseEEPvEELi0ELb0EE5__getB7v160006Ev, symObjAddr: 0x5510, symBinAddr: 0x100008084, symSize: 0x14 }
  - { offsetInCU: 0x15B77, offset: 0x15B77, size: 0x8, addend: 0x0, symName: __ZNSt3__117__compressed_pairIPNS_11__tree_nodeINS_12__value_typeINS_12basic_stringIcNS_11char_traitsIcEENS_9allocatorIcEEEE8TestCaseEEPvEENS_22__tree_node_destructorINS6_ISC_EEEEE6secondB7v160006Ev, symObjAddr: 0x5524, symBinAddr: 0x100008098, symSize: 0x28 }
  - { offsetInCU: 0x15B9D, offset: 0x15B9D, size: 0x8, addend: 0x0, symName: __ZNSt3__122__compressed_pair_elemINS_22__tree_node_destructorINS_9allocatorINS_11__tree_nodeINS_12__value_typeINS_12basic_stringIcNS_11char_traitsIcEENS2_IcEEEE8TestCaseEEPvEEEEEELi1ELb0EE5__getB7v160006Ev, symObjAddr: 0x554C, symBinAddr: 0x1000080C0, symSize: 0x14 }
  - { offsetInCU: 0x15BC3, offset: 0x15BC3, size: 0x8, addend: 0x0, symName: __ZNSt3__16__treeINS_12__value_typeINS_12basic_stringIcNS_11char_traitsIcEENS_9allocatorIcEEEE8TestCaseEENS_19__map_value_compareIS7_S9_NS_4lessIS7_EELb1EEENS5_IS9_EEE4sizeB7v160006Ev, symObjAddr: 0x57DC, symBinAddr: 0x100008350, symSize: 0x28 }
  - { offsetInCU: 0x15BE9, offset: 0x15BE9, size: 0x8, addend: 0x0, symName: __ZNSt3__116__tree_node_baseIPvE12__set_parentB7v160006EPS2_, symObjAddr: 0x59A8, symBinAddr: 0x10000851C, symSize: 0x20 }
  - { offsetInCU: 0x15C1E, offset: 0x15C1E, size: 0x8, addend: 0x0, symName: __ZNSt3__117__compressed_pairImNS_19__map_value_compareINS_12basic_stringIcNS_11char_traitsIcEENS_9allocatorIcEEEENS_12__value_typeIS7_8TestCaseEENS_4lessIS7_EELb1EEEE5firstB7v160006Ev, symObjAddr: 0x59C8, symBinAddr: 0x10000853C, symSize: 0x24 }
  - { offsetInCU: 0x15C44, offset: 0x15C44, size: 0x8, addend: 0x0, symName: __ZNSt3__122__compressed_pair_elemImLi0ELb0EE5__getB7v160006Ev, symObjAddr: 0x59EC, symBinAddr: 0x100008560, symSize: 0x14 }
  - { offsetInCU: 0x15C6A, offset: 0x15C6A, size: 0x8, addend: 0x0, symName: __ZNSt3__117__compressed_pairIPNS_11__tree_nodeINS_12__value_typeINS_12basic_stringIcNS_11char_traitsIcEENS_9allocatorIcEEEE8TestCaseEEPvEENS_22__tree_node_destructorINS6_ISC_EEEEE5firstB7v160006Ev, symObjAddr: 0x5A00, symBinAddr: 0x100008574, symSize: 0x24 }
  - { offsetInCU: 0x15C90, offset: 0x15C90, size: 0x8, addend: 0x0, symName: __ZNSt3__122__compressed_pair_elemIPNS_11__tree_nodeINS_12__value_typeINS_12basic_stringIcNS_11char_traitsIcEENS_9allocatorIcEEEE8TestCaseEEPvEELi0ELb0EE5__getB7v160006Ev, symObjAddr: 0x5A24, symBinAddr: 0x100008598, symSize: 0x14 }
  - { offsetInCU: 0x15CB6, offset: 0x15CB6, size: 0x8, addend: 0x0, symName: __ZNSt3__110unique_ptrINS_11__tree_nodeINS_12__value_typeINS_12basic_stringIcNS_11char_traitsIcEENS_9allocatorIcEEEE8TestCaseEEPvEENS_22__tree_node_destructorINS6_ISC_EEEEED2B7v160006Ev, symObjAddr: 0x5A38, symBinAddr: 0x1000085AC, symSize: 0x30 }
  - { offsetInCU: 0x15CE0, offset: 0x15CE0, size: 0x8, addend: 0x0, symName: __ZNSt3__110unique_ptrINS_11__tree_nodeINS_12__value_typeINS_12basic_stringIcNS_11char_traitsIcEENS_9allocatorIcEEEE8TestCaseEEPvEENS_22__tree_node_destructorINS6_ISC_EEEEE5resetB7v160006EPSC_, symObjAddr: 0x5A68, symBinAddr: 0x1000085DC, symSize: 0x78 }
  - { offsetInCU: 0x15D24, offset: 0x15D24, size: 0x8, addend: 0x0, symName: __ZNSt3__122__tree_node_destructorINS_9allocatorINS_11__tree_nodeINS_12__value_typeINS_12basic_stringIcNS_11char_traitsIcEENS1_IcEEEE8TestCaseEEPvEEEEEclB7v160006EPSC_, symObjAddr: 0x5AE0, symBinAddr: 0x100008654, symSize: 0x94 }
  - { offsetInCU: 0x15D59, offset: 0x15D59, size: 0x8, addend: 0x0, symName: __ZNSt3__115__tree_iteratorINS_12__value_typeINS_12basic_stringIcNS_11char_traitsIcEENS_9allocatorIcEEEE8TestCaseEEPNS_11__tree_nodeIS9_PvEElEC2B7v160006ESD_, symObjAddr: 0x5B74, symBinAddr: 0x1000086E8, symSize: 0x20 }
  - { offsetInCU: 0x15D92, offset: 0x15D92, size: 0x8, addend: 0x0, symName: __ZNSt3__14pairINS_15__tree_iteratorINS_12__value_typeINS_12basic_stringIcNS_11char_traitsIcEENS_9allocatorIcEEEE8TestCaseEEPNS_11__tree_nodeISA_PvEElEEbEC2B7v160006ISF_RbLSC_0EEEOT_OT0_, symObjAddr: 0x5B94, symBinAddr: 0x100008708, symSize: 0x38 }
  - { offsetInCU: 0x15DF0, offset: 0x15DF0, size: 0x8, addend: 0x0, symName: __ZNSt3__14pairINS_14__map_iteratorINS_15__tree_iteratorINS_12__value_typeINS_12basic_stringIcNS_11char_traitsIcEENS_9allocatorIcEEEE8TestCaseEEPNS_11__tree_nodeISB_PvEElEEEEbEC2B7v160006ISG_bLSD_0EEEONS0_IT_T0_EE, symObjAddr: 0x5BCC, symBinAddr: 0x100008740, symSize: 0x50 }
  - { offsetInCU: 0x15E41, offset: 0x15E41, size: 0x8, addend: 0x0, symName: __ZNSt3__114__map_iteratorINS_15__tree_iteratorINS_12__value_typeINS_12basic_stringIcNS_11char_traitsIcEENS_9allocatorIcEEEE8TestCaseEEPNS_11__tree_nodeISA_PvEElEEEC1B7v160006ESF_, symObjAddr: 0x5C1C, symBinAddr: 0x100008790, symSize: 0x34 }
  - { offsetInCU: 0x15E7A, offset: 0x15E7A, size: 0x8, addend: 0x0, symName: __ZNSt3__114__map_iteratorINS_15__tree_iteratorINS_12__value_typeINS_12basic_stringIcNS_11char_traitsIcEENS_9allocatorIcEEEE8TestCaseEEPNS_11__tree_nodeISA_PvEElEEEC2B7v160006ESF_, symObjAddr: 0x5C50, symBinAddr: 0x1000087C4, symSize: 0x20 }
  - { offsetInCU: 0x15EB3, offset: 0x15EB3, size: 0x8, addend: 0x0, symName: __ZN8TestCaseC2ERKNSt3__112basic_stringIcNS0_11char_traitsIcEENS0_9allocatorIcEEEEPFvvE, symObjAddr: 0x5C70, symBinAddr: 0x1000087E4, symSize: 0x58 }
  - { offsetInCU: 0x15EF9, offset: 0x15EF9, size: 0x8, addend: 0x0, symName: __ZNSt3__112basic_stringIcNS_11char_traitsIcEENS_9allocatorIcEEEC1B7v160006Ev, symObjAddr: 0x5CC8, symBinAddr: 0x10000883C, symSize: 0x2C }
  - { offsetInCU: 0x15F23, offset: 0x15F23, size: 0x8, addend: 0x0, symName: __ZNSt3__112basic_stringIcNS_11char_traitsIcEENS_9allocatorIcEEEC2B7v160006Ev, symObjAddr: 0x5CF4, symBinAddr: 0x100008868, symSize: 0x4C }
  - { offsetInCU: 0x15F53, offset: 0x15F53, size: 0x8, addend: 0x0, symName: __ZNSt3__117__compressed_pairINS_12basic_stringIcNS_11char_traitsIcEENS_9allocatorIcEEE5__repES5_EC1B7v160006INS_18__default_init_tagESA_EEOT_OT0_, symObjAddr: 0x5D40, symBinAddr: 0x1000088B4, symSize: 0x3C }
  - { offsetInCU: 0x15FAB, offset: 0x15FAB, size: 0x8, addend: 0x0, symName: __ZNSt3__117__compressed_pairINS_12basic_stringIcNS_11char_traitsIcEENS_9allocatorIcEEE5__repES5_EC2B7v160006INS_18__default_init_tagESA_EEOT_OT0_, symObjAddr: 0x5D7C, symBinAddr: 0x1000088F0, symSize: 0x3C }
  - { offsetInCU: 0x16003, offset: 0x16003, size: 0x8, addend: 0x0, symName: __ZNSt3__122__compressed_pair_elemINS_12basic_stringIcNS_11char_traitsIcEENS_9allocatorIcEEE5__repELi0ELb0EEC2B7v160006ENS_18__default_init_tagE, symObjAddr: 0x5DB8, symBinAddr: 0x10000892C, symSize: 0x14 }
  - { offsetInCU: 0x16038, offset: 0x16038, size: 0x8, addend: 0x0, symName: __ZNSt3__122__compressed_pair_elemINS_9allocatorIcEELi1ELb1EEC2B7v160006ENS_18__default_init_tagE, symObjAddr: 0x5DCC, symBinAddr: 0x100008940, symSize: 0x2C }
  - { offsetInCU: 0x1606D, offset: 0x1606D, size: 0x8, addend: 0x0, symName: __ZNSt3__19allocatorIcEC2B7v160006Ev, symObjAddr: 0x5DF8, symBinAddr: 0x10000896C, symSize: 0x2C }
  - { offsetInCU: 0x16097, offset: 0x16097, size: 0x8, addend: 0x0, symName: __ZNSt3__116__non_trivial_ifILb1ENS_9allocatorIcEEEC2B7v160006Ev, symObjAddr: 0x5E24, symBinAddr: 0x100008998, symSize: 0x14 }
  - { offsetInCU: 0x160C1, offset: 0x160C1, size: 0x8, addend: 0x0, symName: __ZNSt3__14pairIKNS_12basic_stringIcNS_11char_traitsIcEENS_9allocatorIcEEEE8TestCaseEC2B7v160006IRS7_S8_LPv0EEEOT_OT0_, symObjAddr: 0x5E38, symBinAddr: 0x1000089AC, symSize: 0x48 }
  - { offsetInCU: 0x1676E, offset: 0x1676E, size: 0x8, addend: 0x0, symName: __ZN3MapINSt3__112basic_stringIcNS0_11char_traitsIcEENS0_9allocatorIcEEEEdNS0_4lessIS6_EEEC1Ev, symObjAddr: 0x5E80, symBinAddr: 0x1000089F4, symSize: 0x2C }
  - { offsetInCU: 0x1679A, offset: 0x1679A, size: 0x8, addend: 0x0, symName: __ZN3MapINSt3__112basic_stringIcNS0_11char_traitsIcEENS0_9allocatorIcEEEEdNS0_4lessIS6_EEEixERKS6_, symObjAddr: 0x5EAC, symBinAddr: 0x100008A20, symSize: 0x110 }
  - { offsetInCU: 0x167CD, offset: 0x167CD, size: 0x8, addend: 0x0, symName: __Z12assert_equalIRdiEvOT_OT0_iPKc, symObjAddr: 0x5FBC, symBinAddr: 0x100008B30, symSize: 0x174 }
  - { offsetInCU: 0x16847, offset: 0x16847, size: 0x8, addend: 0x0, symName: __ZNSt3__14pairINS_12basic_stringIcNS_11char_traitsIcEENS_9allocatorIcEEEEdEC1B7v160006ILb1ELPv0EEEv, symObjAddr: 0x6130, symBinAddr: 0x100008CA4, symSize: 0x2C }
  - { offsetInCU: 0x16881, offset: 0x16881, size: 0x8, addend: 0x0, symName: __ZNSt3__112basic_stringIcNS_11char_traitsIcEENS_9allocatorIcEEEaSB7v160006EPKc, symObjAddr: 0x615C, symBinAddr: 0x100008CD0, symSize: 0x2C }
  - { offsetInCU: 0x168B6, offset: 0x168B6, size: 0x8, addend: 0x0, symName: __ZN3MapINSt3__112basic_stringIcNS0_11char_traitsIcEENS0_9allocatorIcEEEEdNS0_4lessIS6_EEE6insertERKNS0_4pairIS6_dEE, symObjAddr: 0x6188, symBinAddr: 0x100008CFC, symSize: 0x124 }
  - { offsetInCU: 0x16916, offset: 0x16916, size: 0x8, addend: 0x0, symName: __ZNSt3__14pairINS_12basic_stringIcNS_11char_traitsIcEENS_9allocatorIcEEEEdEC1B7v160006IRA3_KcdLPv0EEEOT_OT0_, symObjAddr: 0x62AC, symBinAddr: 0x100008E20, symSize: 0x3C }
  - { offsetInCU: 0x16974, offset: 0x16974, size: 0x8, addend: 0x0, symName: __ZNSt3__14pairINS_12basic_stringIcNS_11char_traitsIcEENS_9allocatorIcEEEEdED1Ev, symObjAddr: 0x62E8, symBinAddr: 0x100008E5C, symSize: 0x2C }
  - { offsetInCU: 0x169A0, offset: 0x169A0, size: 0x8, addend: 0x0, symName: __ZNSt3__16vectorINS_12basic_stringIcNS_11char_traitsIcEENS_9allocatorIcEEEENS4_IS6_EEEC1B7v160006ESt16initializer_listIS6_E, symObjAddr: 0x6314, symBinAddr: 0x100008E88, symSize: 0x3C }
  - { offsetInCU: 0x169DB, offset: 0x169DB, size: 0x8, addend: 0x0, symName: __ZNSt3__16vectorIdNS_9allocatorIdEEEC1B7v160006ESt16initializer_listIdE, symObjAddr: 0x6350, symBinAddr: 0x100008EC4, symSize: 0x3C }
  - { offsetInCU: 0x16A16, offset: 0x16A16, size: 0x8, addend: 0x0, symName: __ZNSt3__16vectorIdNS_9allocatorIdEEEC1B7v160006Ev, symObjAddr: 0x638C, symBinAddr: 0x100008F00, symSize: 0x2C }
  - { offsetInCU: 0x16A40, offset: 0x16A40, size: 0x8, addend: 0x0, symName: __ZNK3MapINSt3__112basic_stringIcNS0_11char_traitsIcEENS0_9allocatorIcEEEEdNS0_4lessIS6_EEE5beginEv, symObjAddr: 0x63B8, symBinAddr: 0x100008F2C, symSize: 0x24 }
  - { offsetInCU: 0x16A66, offset: 0x16A66, size: 0x8, addend: 0x0, symName: __ZNK3MapINSt3__112basic_stringIcNS0_11char_traitsIcEENS0_9allocatorIcEEEEdNS0_4lessIS6_EEE3endEv, symObjAddr: 0x63DC, symBinAddr: 0x100008F50, symSize: 0x24 }
  - { offsetInCU: 0x16A8C, offset: 0x16A8C, size: 0x8, addend: 0x0, symName: __ZNK16BinarySearchTreeINSt3__14pairINS0_12basic_stringIcNS0_11char_traitsIcEENS0_9allocatorIcEEEEdEEN3MapIS7_dNS0_4lessIS7_EEE8PairCompEE8IteratorneERKSF_, symObjAddr: 0x6400, symBinAddr: 0x100008F74, symSize: 0x30 }
  - { offsetInCU: 0x16AC0, offset: 0x16AC0, size: 0x8, addend: 0x0, symName: __ZNK16BinarySearchTreeINSt3__14pairINS0_12basic_stringIcNS0_11char_traitsIcEENS0_9allocatorIcEEEEdEEN3MapIS7_dNS0_4lessIS7_EEE8PairCompEE8IteratordeEv, symObjAddr: 0x6430, symBinAddr: 0x100008FA4, symSize: 0x18 }
  - { offsetInCU: 0x16AE6, offset: 0x16AE6, size: 0x8, addend: 0x0, symName: __ZNSt3__16vectorINS_12basic_stringIcNS_11char_traitsIcEENS_9allocatorIcEEEENS4_IS6_EEE9push_backB7v160006ERKS6_, symObjAddr: 0x6448, symBinAddr: 0x100008FBC, symSize: 0x6C }
  - { offsetInCU: 0x16B1D, offset: 0x16B1D, size: 0x8, addend: 0x0, symName: __ZNSt3__16vectorIdNS_9allocatorIdEEE9push_backB7v160006ERKd, symObjAddr: 0x64B4, symBinAddr: 0x100009028, symSize: 0x6C }
  - { offsetInCU: 0x16B54, offset: 0x16B54, size: 0x8, addend: 0x0, symName: __ZN16BinarySearchTreeINSt3__14pairINS0_12basic_stringIcNS0_11char_traitsIcEENS0_9allocatorIcEEEEdEEN3MapIS7_dNS0_4lessIS7_EEE8PairCompEE8IteratorppEv, symObjAddr: 0x6520, symBinAddr: 0x100009094, symSize: 0x88 }
  - { offsetInCU: 0x16B79, offset: 0x16B79, size: 0x8, addend: 0x0, symName: __Z12assert_equalIRNSt3__16vectorINS0_12basic_stringIcNS0_11char_traitsIcEENS0_9allocatorIcEEEENS5_IS7_EEEESA_EvOT_OT0_iPKc, symObjAddr: 0x65A8, symBinAddr: 0x10000911C, symSize: 0x174 }
  - { offsetInCU: 0x16BF2, offset: 0x16BF2, size: 0x8, addend: 0x0, symName: __Z12assert_equalIRNSt3__16vectorIdNS0_9allocatorIdEEEES5_EvOT_OT0_iPKc, symObjAddr: 0x671C, symBinAddr: 0x100009290, symSize: 0x174 }
  - { offsetInCU: 0x16C6C, offset: 0x16C6C, size: 0x8, addend: 0x0, symName: __ZNK3MapINSt3__112basic_stringIcNS0_11char_traitsIcEENS0_9allocatorIcEEEEdNS0_4lessIS6_EEE4findERKS6_, symObjAddr: 0x6890, symBinAddr: 0x100009404, symSize: 0x84 }
  - { offsetInCU: 0x16CAD, offset: 0x16CAD, size: 0x8, addend: 0x0, symName: __Z16assert_not_equalIRN16BinarySearchTreeINSt3__14pairINS1_12basic_stringIcNS1_11char_traitsIcEENS1_9allocatorIcEEEEdEEN3MapIS8_dNS1_4lessIS8_EEE8PairCompEE8IteratorESG_EvOT_OT0_iPKc, symObjAddr: 0x6914, symBinAddr: 0x100009488, symSize: 0x188 }
  - { offsetInCU: 0x16D26, offset: 0x16D26, size: 0x8, addend: 0x0, symName: __Z12assert_equalIRNSt3__112basic_stringIcNS0_11char_traitsIcEENS0_9allocatorIcEEEERA3_KcEvOT_OT0_iPS8_, symObjAddr: 0x6A9C, symBinAddr: 0x100009610, symSize: 0x174 }
  - { offsetInCU: 0x16D9F, offset: 0x16D9F, size: 0x8, addend: 0x0, symName: __Z12assert_equalIRddEvOT_OT0_iPKc, symObjAddr: 0x6C10, symBinAddr: 0x100009784, symSize: 0x174 }
  - { offsetInCU: 0x16E19, offset: 0x16E19, size: 0x8, addend: 0x0, symName: __ZNSt3__16vectorIdNS_9allocatorIdEEED1B7v160006Ev, symObjAddr: 0x6D84, symBinAddr: 0x1000098F8, symSize: 0x2C }
  - { offsetInCU: 0x16E43, offset: 0x16E43, size: 0x8, addend: 0x0, symName: __ZN3MapINSt3__112basic_stringIcNS0_11char_traitsIcEENS0_9allocatorIcEEEEdNS0_4lessIS6_EEED1Ev, symObjAddr: 0x6DB0, symBinAddr: 0x100009924, symSize: 0x2C }
  - { offsetInCU: 0x16E6F, offset: 0x16E6F, size: 0x8, addend: 0x0, symName: __ZN3MapINSt3__112basic_stringIcNS0_11char_traitsIcEENS0_9allocatorIcEEEEdNS0_4lessIS6_EEEC2Ev, symObjAddr: 0x6DDC, symBinAddr: 0x100009950, symSize: 0x2C }
  - { offsetInCU: 0x16E9B, offset: 0x16E9B, size: 0x8, addend: 0x0, symName: __ZN16BinarySearchTreeINSt3__14pairINS0_12basic_stringIcNS0_11char_traitsIcEENS0_9allocatorIcEEEEdEEN3MapIS7_dNS0_4lessIS7_EEE8PairCompEEC1Ev, symObjAddr: 0x6E08, symBinAddr: 0x10000997C, symSize: 0x2C }
  - { offsetInCU: 0x16EC5, offset: 0x16EC5, size: 0x8, addend: 0x0, symName: __ZN16BinarySearchTreeINSt3__14pairINS0_12basic_stringIcNS0_11char_traitsIcEENS0_9allocatorIcEEEEdEEN3MapIS7_dNS0_4lessIS7_EEE8PairCompEEC2Ev, symObjAddr: 0x6E34, symBinAddr: 0x1000099A8, symSize: 0x18 }
  - { offsetInCU: 0x16EEF, offset: 0x16EEF, size: 0x8, addend: 0x0, symName: __ZNK16BinarySearchTreeINSt3__14pairINS0_12basic_stringIcNS0_11char_traitsIcEENS0_9allocatorIcEEEEdEEN3MapIS7_dNS0_4lessIS7_EEE8PairCompEE8IteratorptEv, symObjAddr: 0x6E4C, symBinAddr: 0x1000099C0, symSize: 0x18 }
  - { offsetInCU: 0x16F15, offset: 0x16F15, size: 0x8, addend: 0x0, symName: __ZN16BinarySearchTreeINSt3__14pairINS0_12basic_stringIcNS0_11char_traitsIcEENS0_9allocatorIcEEEEdEEN3MapIS7_dNS0_4lessIS7_EEE8PairCompEE6insertERKS8_, symObjAddr: 0x6E64, symBinAddr: 0x1000099D8, symSize: 0xBC }
  - { offsetInCU: 0x16F4A, offset: 0x16F4A, size: 0x8, addend: 0x0, symName: __ZNSt3__14pairINS_12basic_stringIcNS_11char_traitsIcEENS_9allocatorIcEEEEdEC1B7v160006IRKS6_dLPv0EEEOT_OT0_, symObjAddr: 0x6F20, symBinAddr: 0x100009A94, symSize: 0x3C }
  - { offsetInCU: 0x16FA8, offset: 0x16FA8, size: 0x8, addend: 0x0, symName: __ZNK16BinarySearchTreeINSt3__14pairINS0_12basic_stringIcNS0_11char_traitsIcEENS0_9allocatorIcEEEEdEEN3MapIS7_dNS0_4lessIS7_EEE8PairCompEE4findERKS8_, symObjAddr: 0x6F5C, symBinAddr: 0x100009AD0, symSize: 0x74 }
  - { offsetInCU: 0x16FDD, offset: 0x16FDD, size: 0x8, addend: 0x0, symName: __ZNK16BinarySearchTreeINSt3__14pairINS0_12basic_stringIcNS0_11char_traitsIcEENS0_9allocatorIcEEEEdEEN3MapIS7_dNS0_4lessIS7_EEE8PairCompEE8IteratoreqERKSF_, symObjAddr: 0x6FD0, symBinAddr: 0x100009B44, symSize: 0x30 }
  - { offsetInCU: 0x17011, offset: 0x17011, size: 0x8, addend: 0x0, symName: __ZNK16BinarySearchTreeINSt3__14pairINS0_12basic_stringIcNS0_11char_traitsIcEENS0_9allocatorIcEEEEdEEN3MapIS7_dNS0_4lessIS7_EEE8PairCompEE3endEv, symObjAddr: 0x7000, symBinAddr: 0x100009B74, symSize: 0x2C }
  - { offsetInCU: 0x17037, offset: 0x17037, size: 0x8, addend: 0x0, symName: __ZN16BinarySearchTreeINSt3__14pairINS0_12basic_stringIcNS0_11char_traitsIcEENS0_9allocatorIcEEEEdEEN3MapIS7_dNS0_4lessIS7_EEE8PairCompEE11insert_implEPNSE_4NodeERKS8_SD_, symObjAddr: 0x702C, symBinAddr: 0x100009BA0, symSize: 0x254 }
  - { offsetInCU: 0x1708E, offset: 0x1708E, size: 0x8, addend: 0x0, symName: __ZN16BinarySearchTreeINSt3__14pairINS0_12basic_stringIcNS0_11char_traitsIcEENS0_9allocatorIcEEEEdEEN3MapIS7_dNS0_4lessIS7_EEE8PairCompEE9find_implEPNSE_4NodeERKS8_SD_, symObjAddr: 0x7280, symBinAddr: 0x100009DF4, symSize: 0x340 }
  - { offsetInCU: 0x170D0, offset: 0x170D0, size: 0x8, addend: 0x0, symName: __ZN16BinarySearchTreeINSt3__14pairINS0_12basic_stringIcNS0_11char_traitsIcEENS0_9allocatorIcEEEEdEEN3MapIS7_dNS0_4lessIS7_EEE8PairCompEE8IteratorC1EPNSE_4NodeESH_SD_, symObjAddr: 0x75C0, symBinAddr: 0x10000A134, symSize: 0x4C }
  - { offsetInCU: 0x17124, offset: 0x17124, size: 0x8, addend: 0x0, symName: __ZNK3MapINSt3__112basic_stringIcNS0_11char_traitsIcEENS0_9allocatorIcEEEEdNS0_4lessIS6_EEE8PairCompclENS0_4pairIS6_dEESC_, symObjAddr: 0x760C, symBinAddr: 0x10000A180, symSize: 0x38 }
  - { offsetInCU: 0x17168, offset: 0x17168, size: 0x8, addend: 0x0, symName: __ZNSt3__14pairINS_12basic_stringIcNS_11char_traitsIcEENS_9allocatorIcEEEEdEC1ERKS7_, symObjAddr: 0x7644, symBinAddr: 0x10000A1B8, symSize: 0x34 }
  - { offsetInCU: 0x1719D, offset: 0x1719D, size: 0x8, addend: 0x0, symName: __ZNSt3__14pairINS_12basic_stringIcNS_11char_traitsIcEENS_9allocatorIcEEEEdEC2ERKS7_, symObjAddr: 0x7678, symBinAddr: 0x10000A1EC, symSize: 0x40 }
  - { offsetInCU: 0x171D2, offset: 0x171D2, size: 0x8, addend: 0x0, symName: __ZN16BinarySearchTreeINSt3__14pairINS0_12basic_stringIcNS0_11char_traitsIcEENS0_9allocatorIcEEEEdEEN3MapIS7_dNS0_4lessIS7_EEE8PairCompEE8IteratorC2EPNSE_4NodeESH_SD_, symObjAddr: 0x76B8, symBinAddr: 0x10000A22C, symSize: 0x3C }
  - { offsetInCU: 0x17226, offset: 0x17226, size: 0x8, addend: 0x0, symName: __ZN16BinarySearchTreeINSt3__14pairINS0_12basic_stringIcNS0_11char_traitsIcEENS0_9allocatorIcEEEEdEEN3MapIS7_dNS0_4lessIS7_EEE8PairCompEE8IteratorC1Ev, symObjAddr: 0x76F4, symBinAddr: 0x10000A268, symSize: 0x2C }
  - { offsetInCU: 0x17250, offset: 0x17250, size: 0x8, addend: 0x0, symName: __ZN16BinarySearchTreeINSt3__14pairINS0_12basic_stringIcNS0_11char_traitsIcEENS0_9allocatorIcEEEEdEEN3MapIS7_dNS0_4lessIS7_EEE8PairCompEE8IteratorC2Ev, symObjAddr: 0x7720, symBinAddr: 0x10000A294, symSize: 0x1C }
  - { offsetInCU: 0x1727A, offset: 0x1727A, size: 0x8, addend: 0x0, symName: __ZN16BinarySearchTreeINSt3__14pairINS0_12basic_stringIcNS0_11char_traitsIcEENS0_9allocatorIcEEEEdEEN3MapIS7_dNS0_4lessIS7_EEE8PairCompEE4NodeC1Ev, symObjAddr: 0x773C, symBinAddr: 0x10000A2B0, symSize: 0x2C }
  - { offsetInCU: 0x172A4, offset: 0x172A4, size: 0x8, addend: 0x0, symName: __ZNSt3__14pairINS_12basic_stringIcNS_11char_traitsIcEENS_9allocatorIcEEEEdEaSB7v160006ERKS7_, symObjAddr: 0x7768, symBinAddr: 0x10000A2DC, symSize: 0x40 }
  - { offsetInCU: 0x172D9, offset: 0x172D9, size: 0x8, addend: 0x0, symName: __ZN16BinarySearchTreeINSt3__14pairINS0_12basic_stringIcNS0_11char_traitsIcEENS0_9allocatorIcEEEEdEEN3MapIS7_dNS0_4lessIS7_EEE8PairCompEE4NodeC2Ev, symObjAddr: 0x77A8, symBinAddr: 0x10000A31C, symSize: 0x2C }
  - { offsetInCU: 0x17303, offset: 0x17303, size: 0x8, addend: 0x0, symName: __ZNSt3__14pairINS_12basic_stringIcNS_11char_traitsIcEENS_9allocatorIcEEEEdEC2B7v160006IRKS6_dLPv0EEEOT_OT0_, symObjAddr: 0x77D4, symBinAddr: 0x10000A348, symSize: 0x44 }
  - { offsetInCU: 0x173BA, offset: 0x173BA, size: 0x8, addend: 0x0, symName: __ZN11safe_equalsIRdivE6equalsES0_RKi, symObjAddr: 0x7818, symBinAddr: 0x10000A38C, symSize: 0x30 }
  - { offsetInCU: 0x173EC, offset: 0x173EC, size: 0x8, addend: 0x0, symName: __Z5printIdERNSt3__113basic_ostreamIcNS0_11char_traitsIcEEEES5_RKT_, symObjAddr: 0x7848, symBinAddr: 0x10000A3BC, symSize: 0x34 }
  - { offsetInCU: 0x1742F, offset: 0x1742F, size: 0x8, addend: 0x0, symName: __Z5printIiERNSt3__113basic_ostreamIcNS0_11char_traitsIcEEEES5_RKT_, symObjAddr: 0x787C, symBinAddr: 0x10000A3F0, symSize: 0x34 }
  - { offsetInCU: 0x17472, offset: 0x17472, size: 0x8, addend: 0x0, symName: __Z18safe_equals_helperIdiEbRKT_RKT0_, symObjAddr: 0x78B0, symBinAddr: 0x10000A424, symSize: 0x3C }
  - { offsetInCU: 0x174C1, offset: 0x174C1, size: 0x8, addend: 0x0, symName: __Z12print_helperIdERDTlsfp_fp0_ERNSt3__113basic_ostreamIcNS2_11char_traitsIcEEEERKT_ii, symObjAddr: 0x78EC, symBinAddr: 0x10000A460, symSize: 0x38 }
  - { offsetInCU: 0x1751A, offset: 0x1751A, size: 0x8, addend: 0x0, symName: __Z12print_helperIiERDTlsfp_fp0_ERNSt3__113basic_ostreamIcNS2_11char_traitsIcEEEERKT_ii, symObjAddr: 0x7924, symBinAddr: 0x10000A498, symSize: 0x38 }
  - { offsetInCU: 0x17574, offset: 0x17574, size: 0x8, addend: 0x0, symName: __ZNSt3__14pairINS_12basic_stringIcNS_11char_traitsIcEENS_9allocatorIcEEEEdEC2B7v160006ILb1ELPv0EEEv, symObjAddr: 0x795C, symBinAddr: 0x10000A4D0, symSize: 0x34 }
  - { offsetInCU: 0x175AE, offset: 0x175AE, size: 0x8, addend: 0x0, symName: __ZNSt3__14pairIN16BinarySearchTreeINS0_INS_12basic_stringIcNS_11char_traitsIcEENS_9allocatorIcEEEEdEEN3MapIS7_dNS_4lessIS7_EEE8PairCompEE8IteratorEbEC1B7v160006ILb1ELPv0EEEv, symObjAddr: 0x7990, symBinAddr: 0x10000A504, symSize: 0x2C }
  - { offsetInCU: 0x175F4, offset: 0x175F4, size: 0x8, addend: 0x0, symName: __ZNSt3__14pairIN16BinarySearchTreeINS0_INS_12basic_stringIcNS_11char_traitsIcEENS_9allocatorIcEEEEdEEN3MapIS7_dNS_4lessIS7_EEE8PairCompEE8IteratorEbEC1B7v160006ISF_bLPv0EEEOT_OT0_, symObjAddr: 0x79BC, symBinAddr: 0x10000A530, symSize: 0x3C }
  - { offsetInCU: 0x17652, offset: 0x17652, size: 0x8, addend: 0x0, symName: __ZNSt3__14pairIN16BinarySearchTreeINS0_INS_12basic_stringIcNS_11char_traitsIcEENS_9allocatorIcEEEEdEEN3MapIS7_dNS_4lessIS7_EEE8PairCompEE8IteratorEbEaSB7v160006EOSG_, symObjAddr: 0x79F8, symBinAddr: 0x10000A56C, symSize: 0x3C }
  - { offsetInCU: 0x17687, offset: 0x17687, size: 0x8, addend: 0x0, symName: __ZNSt3__14pairIN16BinarySearchTreeINS0_INS_12basic_stringIcNS_11char_traitsIcEENS_9allocatorIcEEEEdEEN3MapIS7_dNS_4lessIS7_EEE8PairCompEE8IteratorEbEC2B7v160006ILb1ELPv0EEEv, symObjAddr: 0x7A34, symBinAddr: 0x10000A5A8, symSize: 0x30 }
  - { offsetInCU: 0x176C1, offset: 0x176C1, size: 0x8, addend: 0x0, symName: __ZNSt3__14pairIN16BinarySearchTreeINS0_INS_12basic_stringIcNS_11char_traitsIcEENS_9allocatorIcEEEEdEEN3MapIS7_dNS_4lessIS7_EEE8PairCompEE8IteratorEbEC2B7v160006ISF_bLPv0EEEOT_OT0_, symObjAddr: 0x7A64, symBinAddr: 0x10000A5D8, symSize: 0x40 }
  - { offsetInCU: 0x1771F, offset: 0x1771F, size: 0x8, addend: 0x0, symName: __ZNSt3__14pairINS_12basic_stringIcNS_11char_traitsIcEENS_9allocatorIcEEEEdEC2B7v160006IRA3_KcdLPv0EEEOT_OT0_, symObjAddr: 0x7AA4, symBinAddr: 0x10000A618, symSize: 0x44 }
  - { offsetInCU: 0x1777D, offset: 0x1777D, size: 0x8, addend: 0x0, symName: __ZNSt3__14pairINS_12basic_stringIcNS_11char_traitsIcEENS_9allocatorIcEEEEdED2Ev, symObjAddr: 0x7AE8, symBinAddr: 0x10000A65C, symSize: 0x2C }
  - { offsetInCU: 0x177A9, offset: 0x177A9, size: 0x8, addend: 0x0, symName: __ZNSt3__16vectorINS_12basic_stringIcNS_11char_traitsIcEENS_9allocatorIcEEEENS4_IS6_EEEC2B7v160006ESt16initializer_listIS6_E, symObjAddr: 0x7B14, symBinAddr: 0x10000A688, symSize: 0x124 }
  - { offsetInCU: 0x17800, offset: 0x17800, size: 0x8, addend: 0x0, symName: __ZNSt3__117__compressed_pairIPNS_12basic_stringIcNS_11char_traitsIcEENS_9allocatorIcEEEENS4_IS6_EEEC1B7v160006IDnNS_18__default_init_tagEEEOT_OT0_, symObjAddr: 0x7C38, symBinAddr: 0x10000A7AC, symSize: 0x3C }
  - { offsetInCU: 0x17858, offset: 0x17858, size: 0x8, addend: 0x0, symName: __ZNSt3__16vectorINS_12basic_stringIcNS_11char_traitsIcEENS_9allocatorIcEEEENS4_IS6_EEE16__destroy_vectorC1ERS8_, symObjAddr: 0x7CB4, symBinAddr: 0x10000A828, symSize: 0x34 }
  - { offsetInCU: 0x17891, offset: 0x17891, size: 0x8, addend: 0x0, symName: __ZNKSt16initializer_listINSt3__112basic_stringIcNS0_11char_traitsIcEENS0_9allocatorIcEEEEE4sizeB7v160006Ev, symObjAddr: 0x7CF8, symBinAddr: 0x10000A86C, symSize: 0x18 }
  - { offsetInCU: 0x178B7, offset: 0x178B7, size: 0x8, addend: 0x0, symName: __ZNSt3__16vectorINS_12basic_stringIcNS_11char_traitsIcEENS_9allocatorIcEEEENS4_IS6_EEE11__vallocateB7v160006Em, symObjAddr: 0x7D10, symBinAddr: 0x10000A884, symSize: 0xB4 }
  - { offsetInCU: 0x178FB, offset: 0x178FB, size: 0x8, addend: 0x0, symName: __ZNSt3__16vectorINS_12basic_stringIcNS_11char_traitsIcEENS_9allocatorIcEEEENS4_IS6_EEE18__construct_at_endIPKS6_Li0EEEvT_SC_m, symObjAddr: 0x7DC4, symBinAddr: 0x10000A938, symSize: 0x8C }
  - { offsetInCU: 0x1796E, offset: 0x1796E, size: 0x8, addend: 0x0, symName: __ZNKSt16initializer_listINSt3__112basic_stringIcNS0_11char_traitsIcEENS0_9allocatorIcEEEEE5beginB7v160006Ev, symObjAddr: 0x7E50, symBinAddr: 0x10000A9C4, symSize: 0x18 }
  - { offsetInCU: 0x17994, offset: 0x17994, size: 0x8, addend: 0x0, symName: __ZNKSt16initializer_listINSt3__112basic_stringIcNS0_11char_traitsIcEENS0_9allocatorIcEEEEE3endB7v160006Ev, symObjAddr: 0x7E68, symBinAddr: 0x10000A9DC, symSize: 0x28 }
  - { offsetInCU: 0x179BA, offset: 0x179BA, size: 0x8, addend: 0x0, symName: __ZNSt3__128__exception_guard_exceptionsINS_6vectorINS_12basic_stringIcNS_11char_traitsIcEENS_9allocatorIcEEEENS5_IS7_EEE16__destroy_vectorEE10__completeB7v160006Ev, symObjAddr: 0x7E90, symBinAddr: 0x10000AA04, symSize: 0x1C }
  - { offsetInCU: 0x179E0, offset: 0x179E0, size: 0x8, addend: 0x0, symName: __ZNSt3__128__exception_guard_exceptionsINS_6vectorINS_12basic_stringIcNS_11char_traitsIcEENS_9allocatorIcEEEENS5_IS7_EEE16__destroy_vectorEED1B7v160006Ev, symObjAddr: 0x7EAC, symBinAddr: 0x10000AA20, symSize: 0x2C }
  - { offsetInCU: 0x17A0A, offset: 0x17A0A, size: 0x8, addend: 0x0, symName: __ZNSt3__117__compressed_pairIPNS_12basic_stringIcNS_11char_traitsIcEENS_9allocatorIcEEEENS4_IS6_EEEC2B7v160006IDnNS_18__default_init_tagEEEOT_OT0_, symObjAddr: 0x7ED8, symBinAddr: 0x10000AA4C, symSize: 0x40 }
  - { offsetInCU: 0x17A62, offset: 0x17A62, size: 0x8, addend: 0x0, symName: __ZNSt3__122__compressed_pair_elemIPNS_12basic_stringIcNS_11char_traitsIcEENS_9allocatorIcEEEELi0ELb0EEC2B7v160006IDnvEEOT_, symObjAddr: 0x7F18, symBinAddr: 0x10000AA8C, symSize: 0x1C }
  - { offsetInCU: 0x17AA4, offset: 0x17AA4, size: 0x8, addend: 0x0, symName: __ZNSt3__122__compressed_pair_elemINS_9allocatorINS_12basic_stringIcNS_11char_traitsIcEENS1_IcEEEEEELi1ELb1EEC2B7v160006ENS_18__default_init_tagE, symObjAddr: 0x7F34, symBinAddr: 0x10000AAA8, symSize: 0x2C }
  - { offsetInCU: 0x17AD9, offset: 0x17AD9, size: 0x8, addend: 0x0, symName: __ZNSt3__19allocatorINS_12basic_stringIcNS_11char_traitsIcEENS0_IcEEEEEC2B7v160006Ev, symObjAddr: 0x7F60, symBinAddr: 0x10000AAD4, symSize: 0x2C }
  - { offsetInCU: 0x17B03, offset: 0x17B03, size: 0x8, addend: 0x0, symName: __ZNSt3__116__non_trivial_ifILb1ENS_9allocatorINS_12basic_stringIcNS_11char_traitsIcEENS1_IcEEEEEEEC2B7v160006Ev, symObjAddr: 0x7F8C, symBinAddr: 0x10000AB00, symSize: 0x14 }
  - { offsetInCU: 0x17B2D, offset: 0x17B2D, size: 0x8, addend: 0x0, symName: __ZNSt3__128__exception_guard_exceptionsINS_6vectorINS_12basic_stringIcNS_11char_traitsIcEENS_9allocatorIcEEEENS5_IS7_EEE16__destroy_vectorEEC1B7v160006ESA_, symObjAddr: 0x7FA0, symBinAddr: 0x10000AB14, symSize: 0x34 }
  - { offsetInCU: 0x17B65, offset: 0x17B65, size: 0x8, addend: 0x0, symName: __ZNSt3__128__exception_guard_exceptionsINS_6vectorINS_12basic_stringIcNS_11char_traitsIcEENS_9allocatorIcEEEENS5_IS7_EEE16__destroy_vectorEEC2B7v160006ESA_, symObjAddr: 0x7FD4, symBinAddr: 0x10000AB48, symSize: 0x24 }
  - { offsetInCU: 0x17B9D, offset: 0x17B9D, size: 0x8, addend: 0x0, symName: __ZNSt3__16vectorINS_12basic_stringIcNS_11char_traitsIcEENS_9allocatorIcEEEENS4_IS6_EEE16__destroy_vectorC2ERS8_, symObjAddr: 0x7FF8, symBinAddr: 0x10000AB6C, symSize: 0x20 }
  - { offsetInCU: 0x17BD6, offset: 0x17BD6, size: 0x8, addend: 0x0, symName: __ZNKSt3__16vectorINS_12basic_stringIcNS_11char_traitsIcEENS_9allocatorIcEEEENS4_IS6_EEE8max_sizeEv, symObjAddr: 0x8018, symBinAddr: 0x10000AB8C, symSize: 0x60 }
  - { offsetInCU: 0x17BFE, offset: 0x17BFE, size: 0x8, addend: 0x0, symName: __ZNKSt3__16vectorINS_12basic_stringIcNS_11char_traitsIcEENS_9allocatorIcEEEENS4_IS6_EEE20__throw_length_errorB7v160006Ev, symObjAddr: 0x8078, symBinAddr: 0x10000ABEC, symSize: 0x1C }
  - { offsetInCU: 0x17C24, offset: 0x17C24, size: 0x8, addend: 0x0, symName: __ZNSt3__16vectorINS_12basic_stringIcNS_11char_traitsIcEENS_9allocatorIcEEEENS4_IS6_EEE7__allocB7v160006Ev, symObjAddr: 0x80D4, symBinAddr: 0x10000AC48, symSize: 0x28 }
  - { offsetInCU: 0x17C4A, offset: 0x17C4A, size: 0x8, addend: 0x0, symName: __ZNSt3__16vectorINS_12basic_stringIcNS_11char_traitsIcEENS_9allocatorIcEEEENS4_IS6_EEE9__end_capB7v160006Ev, symObjAddr: 0x80FC, symBinAddr: 0x10000AC70, symSize: 0x28 }
  - { offsetInCU: 0x17C70, offset: 0x17C70, size: 0x8, addend: 0x0, symName: __ZNKSt3__16vectorINS_12basic_stringIcNS_11char_traitsIcEENS_9allocatorIcEEEENS4_IS6_EEE14__annotate_newB7v160006Em, symObjAddr: 0x8124, symBinAddr: 0x10000AC98, symSize: 0xC8 }
  - { offsetInCU: 0x17CAF, offset: 0x17CAF, size: 0x8, addend: 0x0, symName: __ZNSt3__116allocator_traitsINS_9allocatorINS_12basic_stringIcNS_11char_traitsIcEENS1_IcEEEEEEE8max_sizeB7v160006IS7_vEEmRKS7_, symObjAddr: 0x81EC, symBinAddr: 0x10000AD60, symSize: 0x24 }
  - { offsetInCU: 0x17CDD, offset: 0x17CDD, size: 0x8, addend: 0x0, symName: __ZNKSt3__16vectorINS_12basic_stringIcNS_11char_traitsIcEENS_9allocatorIcEEEENS4_IS6_EEE7__allocB7v160006Ev, symObjAddr: 0x8210, symBinAddr: 0x10000AD84, symSize: 0x28 }
  - { offsetInCU: 0x17D03, offset: 0x17D03, size: 0x8, addend: 0x0, symName: __ZNSt3__114numeric_limitsIlE3maxB7v160006Ev, symObjAddr: 0x8238, symBinAddr: 0x10000ADAC, symSize: 0x14 }
  - { offsetInCU: 0x17D17, offset: 0x17D17, size: 0x8, addend: 0x0, symName: __ZNKSt3__19allocatorINS_12basic_stringIcNS_11char_traitsIcEENS0_IcEEEEE8max_sizeB7v160006Ev, symObjAddr: 0x824C, symBinAddr: 0x10000ADC0, symSize: 0x18 }
  - { offsetInCU: 0x17D3D, offset: 0x17D3D, size: 0x8, addend: 0x0, symName: __ZNKSt3__117__compressed_pairIPNS_12basic_stringIcNS_11char_traitsIcEENS_9allocatorIcEEEENS4_IS6_EEE6secondB7v160006Ev, symObjAddr: 0x8264, symBinAddr: 0x10000ADD8, symSize: 0x24 }
  - { offsetInCU: 0x17D63, offset: 0x17D63, size: 0x8, addend: 0x0, symName: __ZNKSt3__122__compressed_pair_elemINS_9allocatorINS_12basic_stringIcNS_11char_traitsIcEENS1_IcEEEEEELi1ELb1EE5__getB7v160006Ev, symObjAddr: 0x8288, symBinAddr: 0x10000ADFC, symSize: 0x14 }
  - { offsetInCU: 0x17D89, offset: 0x17D89, size: 0x8, addend: 0x0, symName: __ZNSt3__123__libcpp_numeric_limitsIlLb1EE3maxB7v160006Ev, symObjAddr: 0x829C, symBinAddr: 0x10000AE10, symSize: 0x8 }
  - { offsetInCU: 0x17D9D, offset: 0x17D9D, size: 0x8, addend: 0x0, symName: __ZNSt12length_errorC1B7v160006EPKc, symObjAddr: 0x8308, symBinAddr: 0x10000AE7C, symSize: 0x34 }
  - { offsetInCU: 0x17DD5, offset: 0x17DD5, size: 0x8, addend: 0x0, symName: __ZNSt12length_errorC2B7v160006EPKc, symObjAddr: 0x833C, symBinAddr: 0x10000AEB0, symSize: 0x4C }
  - { offsetInCU: 0x17E0D, offset: 0x17E0D, size: 0x8, addend: 0x0, symName: __ZNSt3__19allocatorINS_12basic_stringIcNS_11char_traitsIcEENS0_IcEEEEE8allocateB7v160006Em, symObjAddr: 0x8388, symBinAddr: 0x10000AEFC, symSize: 0x5C }
  - { offsetInCU: 0x17E41, offset: 0x17E41, size: 0x8, addend: 0x0, symName: __ZNSt3__117__compressed_pairIPNS_12basic_stringIcNS_11char_traitsIcEENS_9allocatorIcEEEENS4_IS6_EEE6secondB7v160006Ev, symObjAddr: 0x83E4, symBinAddr: 0x10000AF58, symSize: 0x24 }
  - { offsetInCU: 0x17E67, offset: 0x17E67, size: 0x8, addend: 0x0, symName: __ZNSt3__122__compressed_pair_elemINS_9allocatorINS_12basic_stringIcNS_11char_traitsIcEENS1_IcEEEEEELi1ELb1EE5__getB7v160006Ev, symObjAddr: 0x8408, symBinAddr: 0x10000AF7C, symSize: 0x14 }
  - { offsetInCU: 0x17E8D, offset: 0x17E8D, size: 0x8, addend: 0x0, symName: __ZNSt3__117__compressed_pairIPNS_12basic_stringIcNS_11char_traitsIcEENS_9allocatorIcEEEENS4_IS6_EEE5firstB7v160006Ev, symObjAddr: 0x841C, symBinAddr: 0x10000AF90, symSize: 0x24 }
  - { offsetInCU: 0x17EB3, offset: 0x17EB3, size: 0x8, addend: 0x0, symName: __ZNSt3__122__compressed_pair_elemIPNS_12basic_stringIcNS_11char_traitsIcEENS_9allocatorIcEEEELi0ELb0EE5__getB7v160006Ev, symObjAddr: 0x8440, symBinAddr: 0x10000AFB4, symSize: 0x14 }
  - { offsetInCU: 0x17ED9, offset: 0x17ED9, size: 0x8, addend: 0x0, symName: __ZNKSt3__16vectorINS_12basic_stringIcNS_11char_traitsIcEENS_9allocatorIcEEEENS4_IS6_EEE31__annotate_contiguous_containerB7v160006EPKvSA_SA_SA_, symObjAddr: 0x8454, symBinAddr: 0x10000AFC8, symSize: 0x20 }
  - { offsetInCU: 0x17F2B, offset: 0x17F2B, size: 0x8, addend: 0x0, symName: __ZNKSt3__16vectorINS_12basic_stringIcNS_11char_traitsIcEENS_9allocatorIcEEEENS4_IS6_EEE4dataB7v160006Ev, symObjAddr: 0x8474, symBinAddr: 0x10000AFE8, symSize: 0x28 }
  - { offsetInCU: 0x17F51, offset: 0x17F51, size: 0x8, addend: 0x0, symName: __ZNKSt3__16vectorINS_12basic_stringIcNS_11char_traitsIcEENS_9allocatorIcEEEENS4_IS6_EEE8capacityB7v160006Ev, symObjAddr: 0x849C, symBinAddr: 0x10000B010, symSize: 0x40 }
  - { offsetInCU: 0x17F77, offset: 0x17F77, size: 0x8, addend: 0x0, symName: __ZNKSt3__16vectorINS_12basic_stringIcNS_11char_traitsIcEENS_9allocatorIcEEEENS4_IS6_EEE9__end_capB7v160006Ev, symObjAddr: 0x84F0, symBinAddr: 0x10000B064, symSize: 0x28 }
  - { offsetInCU: 0x17F9D, offset: 0x17F9D, size: 0x8, addend: 0x0, symName: __ZNKSt3__117__compressed_pairIPNS_12basic_stringIcNS_11char_traitsIcEENS_9allocatorIcEEEENS4_IS6_EEE5firstB7v160006Ev, symObjAddr: 0x8518, symBinAddr: 0x10000B08C, symSize: 0x24 }
  - { offsetInCU: 0x17FC3, offset: 0x17FC3, size: 0x8, addend: 0x0, symName: __ZNKSt3__122__compressed_pair_elemIPNS_12basic_stringIcNS_11char_traitsIcEENS_9allocatorIcEEEELi0ELb0EE5__getB7v160006Ev, symObjAddr: 0x853C, symBinAddr: 0x10000B0B0, symSize: 0x14 }
  - { offsetInCU: 0x18002, offset: 0x18002, size: 0x8, addend: 0x0, symName: __ZNSt3__16vectorINS_12basic_stringIcNS_11char_traitsIcEENS_9allocatorIcEEEENS4_IS6_EEE21_ConstructTransactionC1B7v160006ERS8_m, symObjAddr: 0x8550, symBinAddr: 0x10000B0C4, symSize: 0x3C }
  - { offsetInCU: 0x1804A, offset: 0x1804A, size: 0x8, addend: 0x0, symName: __ZNSt3__16vectorINS_12basic_stringIcNS_11char_traitsIcEENS_9allocatorIcEEEENS4_IS6_EEE21_ConstructTransactionD1B7v160006Ev, symObjAddr: 0x8680, symBinAddr: 0x10000B1F4, symSize: 0x2C }
  - { offsetInCU: 0x18074, offset: 0x18074, size: 0x8, addend: 0x0, symName: __ZNSt3__16vectorINS_12basic_stringIcNS_11char_traitsIcEENS_9allocatorIcEEEENS4_IS6_EEE21_ConstructTransactionC2B7v160006ERS8_m, symObjAddr: 0x86AC, symBinAddr: 0x10000B220, symSize: 0x4C }
  - { offsetInCU: 0x180BC, offset: 0x180BC, size: 0x8, addend: 0x0, symName: __ZNSt3__129_AllocatorDestroyRangeReverseINS_9allocatorINS_12basic_stringIcNS_11char_traitsIcEENS1_IcEEEEEEPS6_EC1B7v160006ERS7_RS8_SB_, symObjAddr: 0x8744, symBinAddr: 0x10000B2B8, symSize: 0x44 }
  - { offsetInCU: 0x18113, offset: 0x18113, size: 0x8, addend: 0x0, symName: __ZNSt3__116allocator_traitsINS_9allocatorINS_12basic_stringIcNS_11char_traitsIcEENS1_IcEEEEEEE9constructB7v160006IS6_JRKS6_EvEEvRS7_PT_DpOT0_, symObjAddr: 0x8788, symBinAddr: 0x10000B2FC, symSize: 0x34 }
  - { offsetInCU: 0x1816A, offset: 0x1816A, size: 0x8, addend: 0x0, symName: __ZNSt3__128__exception_guard_exceptionsINS_29_AllocatorDestroyRangeReverseINS_9allocatorINS_12basic_stringIcNS_11char_traitsIcEENS2_IcEEEEEEPS7_EEE10__completeB7v160006Ev, symObjAddr: 0x87BC, symBinAddr: 0x10000B330, symSize: 0x1C }
  - { offsetInCU: 0x18190, offset: 0x18190, size: 0x8, addend: 0x0, symName: __ZNSt3__128__exception_guard_exceptionsINS_29_AllocatorDestroyRangeReverseINS_9allocatorINS_12basic_stringIcNS_11char_traitsIcEENS2_IcEEEEEEPS7_EEED1B7v160006Ev, symObjAddr: 0x87D8, symBinAddr: 0x10000B34C, symSize: 0x2C }
  - { offsetInCU: 0x181BA, offset: 0x181BA, size: 0x8, addend: 0x0, symName: __ZNSt3__128__exception_guard_exceptionsINS_29_AllocatorDestroyRangeReverseINS_9allocatorINS_12basic_stringIcNS_11char_traitsIcEENS2_IcEEEEEEPS7_EEEC1B7v160006ESA_, symObjAddr: 0x8804, symBinAddr: 0x10000B378, symSize: 0x34 }
  - { offsetInCU: 0x181F3, offset: 0x181F3, size: 0x8, addend: 0x0, symName: __ZNSt3__128__exception_guard_exceptionsINS_29_AllocatorDestroyRangeReverseINS_9allocatorINS_12basic_stringIcNS_11char_traitsIcEENS2_IcEEEEEEPS7_EEEC2B7v160006ESA_, symObjAddr: 0x8838, symBinAddr: 0x10000B3AC, symSize: 0x30 }
  - { offsetInCU: 0x1822C, offset: 0x1822C, size: 0x8, addend: 0x0, symName: __ZNSt3__129_AllocatorDestroyRangeReverseINS_9allocatorINS_12basic_stringIcNS_11char_traitsIcEENS1_IcEEEEEEPS6_EC2B7v160006ERS7_RS8_SB_, symObjAddr: 0x8868, symBinAddr: 0x10000B3DC, symSize: 0x38 }
  - { offsetInCU: 0x18283, offset: 0x18283, size: 0x8, addend: 0x0, symName: __ZNSt3__19allocatorINS_12basic_stringIcNS_11char_traitsIcEENS0_IcEEEEE9constructB7v160006IS5_JRKS5_EEEvPT_DpOT0_, symObjAddr: 0x88A0, symBinAddr: 0x10000B414, symSize: 0x30 }
  - { offsetInCU: 0x182D9, offset: 0x182D9, size: 0x8, addend: 0x0, symName: __ZNSt3__128__exception_guard_exceptionsINS_29_AllocatorDestroyRangeReverseINS_9allocatorINS_12basic_stringIcNS_11char_traitsIcEENS2_IcEEEEEEPS7_EEED2B7v160006Ev, symObjAddr: 0x88D0, symBinAddr: 0x10000B444, symSize: 0x50 }
  - { offsetInCU: 0x18303, offset: 0x18303, size: 0x8, addend: 0x0, symName: __ZNKSt3__129_AllocatorDestroyRangeReverseINS_9allocatorINS_12basic_stringIcNS_11char_traitsIcEENS1_IcEEEEEEPS6_EclB7v160006Ev, symObjAddr: 0x8920, symBinAddr: 0x10000B494, symSize: 0x68 }
  - { offsetInCU: 0x18329, offset: 0x18329, size: 0x8, addend: 0x0, symName: __ZNSt3__116reverse_iteratorIPNS_12basic_stringIcNS_11char_traitsIcEENS_9allocatorIcEEEEEC1B7v160006ES7_, symObjAddr: 0x89F8, symBinAddr: 0x10000B56C, symSize: 0x34 }
  - { offsetInCU: 0x18361, offset: 0x18361, size: 0x8, addend: 0x0, symName: __ZNSt3__116allocator_traitsINS_9allocatorINS_12basic_stringIcNS_11char_traitsIcEENS1_IcEEEEEEE7destroyB7v160006IS6_vEEvRS7_PT_, symObjAddr: 0x8A74, symBinAddr: 0x10000B5E8, symSize: 0x2C }
  - { offsetInCU: 0x1839E, offset: 0x1839E, size: 0x8, addend: 0x0, symName: __ZNSt3__116reverse_iteratorIPNS_12basic_stringIcNS_11char_traitsIcEENS_9allocatorIcEEEEEppB7v160006Ev, symObjAddr: 0x8AC4, symBinAddr: 0x10000B638, symSize: 0x20 }
  - { offsetInCU: 0x183C4, offset: 0x183C4, size: 0x8, addend: 0x0, symName: __ZNKSt3__116reverse_iteratorIPNS_12basic_stringIcNS_11char_traitsIcEENS_9allocatorIcEEEEE4baseB7v160006Ev, symObjAddr: 0x8AE4, symBinAddr: 0x10000B658, symSize: 0x18 }
  - { offsetInCU: 0x183EA, offset: 0x183EA, size: 0x8, addend: 0x0, symName: __ZNSt3__19allocatorINS_12basic_stringIcNS_11char_traitsIcEENS0_IcEEEEE7destroyB7v160006EPS5_, symObjAddr: 0x8AFC, symBinAddr: 0x10000B670, symSize: 0x28 }
  - { offsetInCU: 0x18423, offset: 0x18423, size: 0x8, addend: 0x0, symName: __ZNSt3__119__to_address_helperINS_16reverse_iteratorIPNS_12basic_stringIcNS_11char_traitsIcEENS_9allocatorIcEEEEEEvE6__callB7v160006ERKS9_, symObjAddr: 0x8B24, symBinAddr: 0x10000B698, symSize: 0x38 }
  - { offsetInCU: 0x18446, offset: 0x18446, size: 0x8, addend: 0x0, symName: __ZNKSt3__116reverse_iteratorIPNS_12basic_stringIcNS_11char_traitsIcEENS_9allocatorIcEEEEEptB7v160006Ev, symObjAddr: 0x8B5C, symBinAddr: 0x10000B6D0, symSize: 0x24 }
  - { offsetInCU: 0x1846C, offset: 0x1846C, size: 0x8, addend: 0x0, symName: __ZNKSt3__116reverse_iteratorIPNS_12basic_stringIcNS_11char_traitsIcEENS_9allocatorIcEEEEEdeB7v160006Ev, symObjAddr: 0x8B80, symBinAddr: 0x10000B6F4, symSize: 0x28 }
  - { offsetInCU: 0x184A0, offset: 0x184A0, size: 0x8, addend: 0x0, symName: __ZNSt3__116reverse_iteratorIPNS_12basic_stringIcNS_11char_traitsIcEENS_9allocatorIcEEEEEC2B7v160006ES7_, symObjAddr: 0x8BA8, symBinAddr: 0x10000B71C, symSize: 0x28 }
  - { offsetInCU: 0x184D8, offset: 0x184D8, size: 0x8, addend: 0x0, symName: __ZNSt3__16vectorINS_12basic_stringIcNS_11char_traitsIcEENS_9allocatorIcEEEENS4_IS6_EEE21_ConstructTransactionD2B7v160006Ev, symObjAddr: 0x8BD0, symBinAddr: 0x10000B744, symSize: 0x20 }
  - { offsetInCU: 0x18502, offset: 0x18502, size: 0x8, addend: 0x0, symName: __ZNSt3__128__exception_guard_exceptionsINS_6vectorINS_12basic_stringIcNS_11char_traitsIcEENS_9allocatorIcEEEENS5_IS7_EEE16__destroy_vectorEED2B7v160006Ev, symObjAddr: 0x8BF0, symBinAddr: 0x10000B764, symSize: 0x50 }
  - { offsetInCU: 0x1852C, offset: 0x1852C, size: 0x8, addend: 0x0, symName: __ZNSt3__16vectorINS_12basic_stringIcNS_11char_traitsIcEENS_9allocatorIcEEEENS4_IS6_EEE16__destroy_vectorclB7v160006Ev, symObjAddr: 0x8C40, symBinAddr: 0x10000B7B4, symSize: 0x9C }
  - { offsetInCU: 0x18552, offset: 0x18552, size: 0x8, addend: 0x0, symName: __ZNKSt3__16vectorINS_12basic_stringIcNS_11char_traitsIcEENS_9allocatorIcEEEENS4_IS6_EEE17__annotate_deleteB7v160006Ev, symObjAddr: 0x8CDC, symBinAddr: 0x10000B850, symSize: 0xD4 }
  - { offsetInCU: 0x18578, offset: 0x18578, size: 0x8, addend: 0x0, symName: __ZNSt3__16vectorINS_12basic_stringIcNS_11char_traitsIcEENS_9allocatorIcEEEENS4_IS6_EEE7__clearB7v160006Ev, symObjAddr: 0x8DC0, symBinAddr: 0x10000B934, symSize: 0x28 }
  - { offsetInCU: 0x1859E, offset: 0x1859E, size: 0x8, addend: 0x0, symName: __ZNSt3__116allocator_traitsINS_9allocatorINS_12basic_stringIcNS_11char_traitsIcEENS1_IcEEEEEEE10deallocateB7v160006ERS7_PS6_m, symObjAddr: 0x8DE8, symBinAddr: 0x10000B95C, symSize: 0x34 }
  - { offsetInCU: 0x185E0, offset: 0x185E0, size: 0x8, addend: 0x0, symName: __ZNSt3__16vectorINS_12basic_stringIcNS_11char_traitsIcEENS_9allocatorIcEEEENS4_IS6_EEE22__base_destruct_at_endB7v160006EPS6_, symObjAddr: 0x8E1C, symBinAddr: 0x10000B990, symSize: 0x8C }
  - { offsetInCU: 0x18624, offset: 0x18624, size: 0x8, addend: 0x0, symName: __ZNSt3__19allocatorINS_12basic_stringIcNS_11char_traitsIcEENS0_IcEEEEE10deallocateB7v160006EPS5_m, symObjAddr: 0x8EA8, symBinAddr: 0x10000BA1C, symSize: 0x44 }
  - { offsetInCU: 0x18666, offset: 0x18666, size: 0x8, addend: 0x0, symName: __ZNSt3__16vectorIdNS_9allocatorIdEEEC2B7v160006ESt16initializer_listIdE, symObjAddr: 0x8EEC, symBinAddr: 0x10000BA60, symSize: 0x124 }
  - { offsetInCU: 0x186B7, offset: 0x186B7, size: 0x8, addend: 0x0, symName: __ZNSt3__117__compressed_pairIPdNS_9allocatorIdEEEC1B7v160006IDnNS_18__default_init_tagEEEOT_OT0_, symObjAddr: 0x9010, symBinAddr: 0x10000BB84, symSize: 0x3C }
  - { offsetInCU: 0x1870F, offset: 0x1870F, size: 0x8, addend: 0x0, symName: __ZNSt3__16vectorIdNS_9allocatorIdEEE16__destroy_vectorC1ERS3_, symObjAddr: 0x908C, symBinAddr: 0x10000BC00, symSize: 0x34 }
  - { offsetInCU: 0x18748, offset: 0x18748, size: 0x8, addend: 0x0, symName: __ZNKSt16initializer_listIdE4sizeB7v160006Ev, symObjAddr: 0x90D0, symBinAddr: 0x10000BC44, symSize: 0x18 }
  - { offsetInCU: 0x1876E, offset: 0x1876E, size: 0x8, addend: 0x0, symName: __ZNSt3__16vectorIdNS_9allocatorIdEEE11__vallocateB7v160006Em, symObjAddr: 0x90E8, symBinAddr: 0x10000BC5C, symSize: 0xAC }
  - { offsetInCU: 0x187B2, offset: 0x187B2, size: 0x8, addend: 0x0, symName: __ZNSt3__16vectorIdNS_9allocatorIdEEE18__construct_at_endIPKdLi0EEEvT_S7_m, symObjAddr: 0x9194, symBinAddr: 0x10000BD08, symSize: 0x8C }
  - { offsetInCU: 0x18825, offset: 0x18825, size: 0x8, addend: 0x0, symName: __ZNKSt16initializer_listIdE5beginB7v160006Ev, symObjAddr: 0x9220, symBinAddr: 0x10000BD94, symSize: 0x18 }
  - { offsetInCU: 0x1884B, offset: 0x1884B, size: 0x8, addend: 0x0, symName: __ZNKSt16initializer_listIdE3endB7v160006Ev, symObjAddr: 0x9238, symBinAddr: 0x10000BDAC, symSize: 0x20 }
  - { offsetInCU: 0x18871, offset: 0x18871, size: 0x8, addend: 0x0, symName: __ZNSt3__128__exception_guard_exceptionsINS_6vectorIdNS_9allocatorIdEEE16__destroy_vectorEE10__completeB7v160006Ev, symObjAddr: 0x9258, symBinAddr: 0x10000BDCC, symSize: 0x1C }
  - { offsetInCU: 0x18897, offset: 0x18897, size: 0x8, addend: 0x0, symName: __ZNSt3__128__exception_guard_exceptionsINS_6vectorIdNS_9allocatorIdEEE16__destroy_vectorEED1B7v160006Ev, symObjAddr: 0x9274, symBinAddr: 0x10000BDE8, symSize: 0x2C }
  - { offsetInCU: 0x188C1, offset: 0x188C1, size: 0x8, addend: 0x0, symName: __ZNSt3__117__compressed_pairIPdNS_9allocatorIdEEEC2B7v160006IDnNS_18__default_init_tagEEEOT_OT0_, symObjAddr: 0x92A0, symBinAddr: 0x10000BE14, symSize: 0x40 }
  - { offsetInCU: 0x18919, offset: 0x18919, size: 0x8, addend: 0x0, symName: __ZNSt3__122__compressed_pair_elemIPdLi0ELb0EEC2B7v160006IDnvEEOT_, symObjAddr: 0x92E0, symBinAddr: 0x10000BE54, symSize: 0x1C }
  - { offsetInCU: 0x1895B, offset: 0x1895B, size: 0x8, addend: 0x0, symName: __ZNSt3__122__compressed_pair_elemINS_9allocatorIdEELi1ELb1EEC2B7v160006ENS_18__default_init_tagE, symObjAddr: 0x92FC, symBinAddr: 0x10000BE70, symSize: 0x2C }
  - { offsetInCU: 0x18990, offset: 0x18990, size: 0x8, addend: 0x0, symName: __ZNSt3__19allocatorIdEC2B7v160006Ev, symObjAddr: 0x9328, symBinAddr: 0x10000BE9C, symSize: 0x2C }
  - { offsetInCU: 0x189BA, offset: 0x189BA, size: 0x8, addend: 0x0, symName: __ZNSt3__116__non_trivial_ifILb1ENS_9allocatorIdEEEC2B7v160006Ev, symObjAddr: 0x9354, symBinAddr: 0x10000BEC8, symSize: 0x14 }
  - { offsetInCU: 0x189E4, offset: 0x189E4, size: 0x8, addend: 0x0, symName: __ZNSt3__128__exception_guard_exceptionsINS_6vectorIdNS_9allocatorIdEEE16__destroy_vectorEEC1B7v160006ES5_, symObjAddr: 0x9368, symBinAddr: 0x10000BEDC, symSize: 0x34 }
  - { offsetInCU: 0x18A1C, offset: 0x18A1C, size: 0x8, addend: 0x0, symName: __ZNSt3__128__exception_guard_exceptionsINS_6vectorIdNS_9allocatorIdEEE16__destroy_vectorEEC2B7v160006ES5_, symObjAddr: 0x939C, symBinAddr: 0x10000BF10, symSize: 0x24 }
  - { offsetInCU: 0x18A54, offset: 0x18A54, size: 0x8, addend: 0x0, symName: __ZNSt3__16vectorIdNS_9allocatorIdEEE16__destroy_vectorC2ERS3_, symObjAddr: 0x93C0, symBinAddr: 0x10000BF34, symSize: 0x20 }
  - { offsetInCU: 0x18A8D, offset: 0x18A8D, size: 0x8, addend: 0x0, symName: __ZNKSt3__16vectorIdNS_9allocatorIdEEE8max_sizeEv, symObjAddr: 0x93E0, symBinAddr: 0x10000BF54, symSize: 0x60 }
  - { offsetInCU: 0x18AB5, offset: 0x18AB5, size: 0x8, addend: 0x0, symName: __ZNKSt3__16vectorIdNS_9allocatorIdEEE20__throw_length_errorB7v160006Ev, symObjAddr: 0x9440, symBinAddr: 0x10000BFB4, symSize: 0x1C }
  - { offsetInCU: 0x18ADB, offset: 0x18ADB, size: 0x8, addend: 0x0, symName: __ZNSt3__16vectorIdNS_9allocatorIdEEE7__allocB7v160006Ev, symObjAddr: 0x949C, symBinAddr: 0x10000C010, symSize: 0x28 }
  - { offsetInCU: 0x18B01, offset: 0x18B01, size: 0x8, addend: 0x0, symName: __ZNSt3__16vectorIdNS_9allocatorIdEEE9__end_capB7v160006Ev, symObjAddr: 0x94C4, symBinAddr: 0x10000C038, symSize: 0x28 }
  - { offsetInCU: 0x18B27, offset: 0x18B27, size: 0x8, addend: 0x0, symName: __ZNKSt3__16vectorIdNS_9allocatorIdEEE14__annotate_newB7v160006Em, symObjAddr: 0x94EC, symBinAddr: 0x10000C060, symSize: 0xAC }
  - { offsetInCU: 0x18B66, offset: 0x18B66, size: 0x8, addend: 0x0, symName: __ZNSt3__116allocator_traitsINS_9allocatorIdEEE8max_sizeB7v160006IS2_vEEmRKS2_, symObjAddr: 0x9598, symBinAddr: 0x10000C10C, symSize: 0x24 }
  - { offsetInCU: 0x18B94, offset: 0x18B94, size: 0x8, addend: 0x0, symName: __ZNKSt3__16vectorIdNS_9allocatorIdEEE7__allocB7v160006Ev, symObjAddr: 0x95BC, symBinAddr: 0x10000C130, symSize: 0x28 }
  - { offsetInCU: 0x18BBA, offset: 0x18BBA, size: 0x8, addend: 0x0, symName: __ZNKSt3__19allocatorIdE8max_sizeB7v160006Ev, symObjAddr: 0x95E4, symBinAddr: 0x10000C158, symSize: 0x14 }
  - { offsetInCU: 0x18BE0, offset: 0x18BE0, size: 0x8, addend: 0x0, symName: __ZNKSt3__117__compressed_pairIPdNS_9allocatorIdEEE6secondB7v160006Ev, symObjAddr: 0x95F8, symBinAddr: 0x10000C16C, symSize: 0x24 }
  - { offsetInCU: 0x18C06, offset: 0x18C06, size: 0x8, addend: 0x0, symName: __ZNKSt3__122__compressed_pair_elemINS_9allocatorIdEELi1ELb1EE5__getB7v160006Ev, symObjAddr: 0x961C, symBinAddr: 0x10000C190, symSize: 0x14 }
  - { offsetInCU: 0x18C2C, offset: 0x18C2C, size: 0x8, addend: 0x0, symName: __ZNSt3__19allocatorIdE8allocateB7v160006Em, symObjAddr: 0x9630, symBinAddr: 0x10000C1A4, symSize: 0x58 }
  - { offsetInCU: 0x18C60, offset: 0x18C60, size: 0x8, addend: 0x0, symName: __ZNSt3__117__compressed_pairIPdNS_9allocatorIdEEE6secondB7v160006Ev, symObjAddr: 0x9688, symBinAddr: 0x10000C1FC, symSize: 0x24 }
  - { offsetInCU: 0x18C86, offset: 0x18C86, size: 0x8, addend: 0x0, symName: __ZNSt3__122__compressed_pair_elemINS_9allocatorIdEELi1ELb1EE5__getB7v160006Ev, symObjAddr: 0x96AC, symBinAddr: 0x10000C220, symSize: 0x14 }
  - { offsetInCU: 0x18CAC, offset: 0x18CAC, size: 0x8, addend: 0x0, symName: __ZNSt3__117__compressed_pairIPdNS_9allocatorIdEEE5firstB7v160006Ev, symObjAddr: 0x96C0, symBinAddr: 0x10000C234, symSize: 0x24 }
  - { offsetInCU: 0x18CD2, offset: 0x18CD2, size: 0x8, addend: 0x0, symName: __ZNSt3__122__compressed_pair_elemIPdLi0ELb0EE5__getB7v160006Ev, symObjAddr: 0x96E4, symBinAddr: 0x10000C258, symSize: 0x14 }
  - { offsetInCU: 0x18CF8, offset: 0x18CF8, size: 0x8, addend: 0x0, symName: __ZNKSt3__16vectorIdNS_9allocatorIdEEE31__annotate_contiguous_containerB7v160006EPKvS5_S5_S5_, symObjAddr: 0x96F8, symBinAddr: 0x10000C26C, symSize: 0x20 }
  - { offsetInCU: 0x18D4A, offset: 0x18D4A, size: 0x8, addend: 0x0, symName: __ZNKSt3__16vectorIdNS_9allocatorIdEEE4dataB7v160006Ev, symObjAddr: 0x9718, symBinAddr: 0x10000C28C, symSize: 0x28 }
  - { offsetInCU: 0x18D70, offset: 0x18D70, size: 0x8, addend: 0x0, symName: __ZNKSt3__16vectorIdNS_9allocatorIdEEE8capacityB7v160006Ev, symObjAddr: 0x9740, symBinAddr: 0x10000C2B4, symSize: 0x40 }
  - { offsetInCU: 0x18D96, offset: 0x18D96, size: 0x8, addend: 0x0, symName: __ZNKSt3__16vectorIdNS_9allocatorIdEEE9__end_capB7v160006Ev, symObjAddr: 0x9794, symBinAddr: 0x10000C308, symSize: 0x28 }
  - { offsetInCU: 0x18DBC, offset: 0x18DBC, size: 0x8, addend: 0x0, symName: __ZNKSt3__117__compressed_pairIPdNS_9allocatorIdEEE5firstB7v160006Ev, symObjAddr: 0x97BC, symBinAddr: 0x10000C330, symSize: 0x24 }
  - { offsetInCU: 0x18DE2, offset: 0x18DE2, size: 0x8, addend: 0x0, symName: __ZNKSt3__122__compressed_pair_elemIPdLi0ELb0EE5__getB7v160006Ev, symObjAddr: 0x97E0, symBinAddr: 0x10000C354, symSize: 0x14 }
  - { offsetInCU: 0x18E21, offset: 0x18E21, size: 0x8, addend: 0x0, symName: __ZNSt3__16vectorIdNS_9allocatorIdEEE21_ConstructTransactionC1B7v160006ERS3_m, symObjAddr: 0x97F4, symBinAddr: 0x10000C368, symSize: 0x3C }
  - { offsetInCU: 0x18E69, offset: 0x18E69, size: 0x8, addend: 0x0, symName: __ZNSt3__16vectorIdNS_9allocatorIdEEE21_ConstructTransactionD1B7v160006Ev, symObjAddr: 0x9868, symBinAddr: 0x10000C3DC, symSize: 0x2C }
  - { offsetInCU: 0x18E93, offset: 0x18E93, size: 0x8, addend: 0x0, symName: __ZNSt3__16vectorIdNS_9allocatorIdEEE21_ConstructTransactionC2B7v160006ERS3_m, symObjAddr: 0x9894, symBinAddr: 0x10000C408, symSize: 0x44 }
  - { offsetInCU: 0x18EFF, offset: 0x18EFF, size: 0x8, addend: 0x0, symName: __ZNKSt3__114__copy_trivialclB7v160006IKddLi0EEENS_4pairIPT_PT0_EES5_S5_S7_, symObjAddr: 0x9AB4, symBinAddr: 0x10000C628, symSize: 0x48 }
  - { offsetInCU: 0x18F87, offset: 0x18F87, size: 0x8, addend: 0x0, symName: __ZNSt3__14pairIPKdS2_EC1B7v160006IS2_S2_LPv0EEEOT_OT0_, symObjAddr: 0x9C1C, symBinAddr: 0x10000C790, symSize: 0x3C }
  - { offsetInCU: 0x18FE5, offset: 0x18FE5, size: 0x8, addend: 0x0, symName: __ZNSt3__14pairIPKdS2_EC2B7v160006IS2_S2_LPv0EEEOT_OT0_, symObjAddr: 0x9C58, symBinAddr: 0x10000C7CC, symSize: 0x34 }
  - { offsetInCU: 0x19043, offset: 0x19043, size: 0x8, addend: 0x0, symName: __ZNSt3__118__unwrap_iter_implIPKdLb1EE8__unwrapB7v160006ES2_, symObjAddr: 0x9C8C, symBinAddr: 0x10000C800, symSize: 0x24 }
  - { offsetInCU: 0x19071, offset: 0x19071, size: 0x8, addend: 0x0, symName: __ZNSt3__14pairIPKdPdEC1B7v160006IRS2_S3_LPv0EEEOT_OT0_, symObjAddr: 0x9D80, symBinAddr: 0x10000C8F4, symSize: 0x3C }
  - { offsetInCU: 0x190CF, offset: 0x190CF, size: 0x8, addend: 0x0, symName: __ZNSt3__14pairIPKdPdEC2B7v160006IRS2_S3_LPv0EEEOT_OT0_, symObjAddr: 0x9DBC, symBinAddr: 0x10000C930, symSize: 0x34 }
  - { offsetInCU: 0x1912D, offset: 0x1912D, size: 0x8, addend: 0x0, symName: __ZNSt3__118__unwrap_iter_implIPdLb1EE8__unwrapB7v160006ES1_, symObjAddr: 0x9DF0, symBinAddr: 0x10000C964, symSize: 0x24 }
  - { offsetInCU: 0x19150, offset: 0x19150, size: 0x8, addend: 0x0, symName: __ZNSt3__14pairIPKdPdEC1B7v160006IS2_S3_LPv0EEEOT_OT0_, symObjAddr: 0x9E14, symBinAddr: 0x10000C988, symSize: 0x3C }
  - { offsetInCU: 0x191AE, offset: 0x191AE, size: 0x8, addend: 0x0, symName: __ZNSt3__14pairIPKdPdEC2B7v160006IS2_S3_LPv0EEEOT_OT0_, symObjAddr: 0x9E50, symBinAddr: 0x10000C9C4, symSize: 0x34 }
  - { offsetInCU: 0x1920C, offset: 0x1920C, size: 0x8, addend: 0x0, symName: __ZNSt3__118__unwrap_iter_implIPKdLb1EE8__rewrapB7v160006ES2_S2_, symObjAddr: 0x9EC0, symBinAddr: 0x10000CA34, symSize: 0x50 }
  - { offsetInCU: 0x1923D, offset: 0x1923D, size: 0x8, addend: 0x0, symName: __ZNSt3__118__unwrap_iter_implIPdLb1EE8__rewrapB7v160006ES1_S1_, symObjAddr: 0x9F10, symBinAddr: 0x10000CA84, symSize: 0x50 }
  - { offsetInCU: 0x1926E, offset: 0x1926E, size: 0x8, addend: 0x0, symName: __ZNSt3__16vectorIdNS_9allocatorIdEEE21_ConstructTransactionD2B7v160006Ev, symObjAddr: 0x9F60, symBinAddr: 0x10000CAD4, symSize: 0x20 }
  - { offsetInCU: 0x19298, offset: 0x19298, size: 0x8, addend: 0x0, symName: __ZNSt3__128__exception_guard_exceptionsINS_6vectorIdNS_9allocatorIdEEE16__destroy_vectorEED2B7v160006Ev, symObjAddr: 0x9F80, symBinAddr: 0x10000CAF4, symSize: 0x50 }
  - { offsetInCU: 0x192C2, offset: 0x192C2, size: 0x8, addend: 0x0, symName: __ZNSt3__16vectorIdNS_9allocatorIdEEE16__destroy_vectorclB7v160006Ev, symObjAddr: 0x9FD0, symBinAddr: 0x10000CB44, symSize: 0x9C }
  - { offsetInCU: 0x192E8, offset: 0x192E8, size: 0x8, addend: 0x0, symName: __ZNKSt3__16vectorIdNS_9allocatorIdEEE17__annotate_deleteB7v160006Ev, symObjAddr: 0xA06C, symBinAddr: 0x10000CBE0, symSize: 0xB8 }
  - { offsetInCU: 0x1930E, offset: 0x1930E, size: 0x8, addend: 0x0, symName: __ZNSt3__16vectorIdNS_9allocatorIdEEE7__clearB7v160006Ev, symObjAddr: 0xA134, symBinAddr: 0x10000CCA8, symSize: 0x28 }
  - { offsetInCU: 0x19334, offset: 0x19334, size: 0x8, addend: 0x0, symName: __ZNSt3__116allocator_traitsINS_9allocatorIdEEE10deallocateB7v160006ERS2_Pdm, symObjAddr: 0xA15C, symBinAddr: 0x10000CCD0, symSize: 0x34 }
  - { offsetInCU: 0x19376, offset: 0x19376, size: 0x8, addend: 0x0, symName: __ZNKSt3__16vectorIdNS_9allocatorIdEEE4sizeB7v160006Ev, symObjAddr: 0xA190, symBinAddr: 0x10000CD04, symSize: 0x28 }
  - { offsetInCU: 0x1939C, offset: 0x1939C, size: 0x8, addend: 0x0, symName: __ZNSt3__16vectorIdNS_9allocatorIdEEE22__base_destruct_at_endB7v160006EPd, symObjAddr: 0xA1B8, symBinAddr: 0x10000CD2C, symSize: 0x8C }
  - { offsetInCU: 0x193E0, offset: 0x193E0, size: 0x8, addend: 0x0, symName: __ZNSt3__116allocator_traitsINS_9allocatorIdEEE7destroyB7v160006IdvEEvRS2_PT_, symObjAddr: 0xA244, symBinAddr: 0x10000CDB8, symSize: 0x2C }
  - { offsetInCU: 0x1941D, offset: 0x1941D, size: 0x8, addend: 0x0, symName: __ZNSt3__19allocatorIdE7destroyB7v160006EPd, symObjAddr: 0xA270, symBinAddr: 0x10000CDE4, symSize: 0x14 }
  - { offsetInCU: 0x19451, offset: 0x19451, size: 0x8, addend: 0x0, symName: __ZNSt3__19allocatorIdE10deallocateB7v160006EPdm, symObjAddr: 0xA284, symBinAddr: 0x10000CDF8, symSize: 0x40 }
  - { offsetInCU: 0x19493, offset: 0x19493, size: 0x8, addend: 0x0, symName: __ZNSt3__16vectorIdNS_9allocatorIdEEEC2B7v160006Ev, symObjAddr: 0xA2C4, symBinAddr: 0x10000CE38, symSize: 0x54 }
  - { offsetInCU: 0x194BD, offset: 0x194BD, size: 0x8, addend: 0x0, symName: __ZNK16BinarySearchTreeINSt3__14pairINS0_12basic_stringIcNS0_11char_traitsIcEENS0_9allocatorIcEEEEdEEN3MapIS7_dNS0_4lessIS7_EEE8PairCompEE5beginEv, symObjAddr: 0xA318, symBinAddr: 0x10000CE8C, symSize: 0x84 }
  - { offsetInCU: 0x194E3, offset: 0x194E3, size: 0x8, addend: 0x0, symName: __ZN16BinarySearchTreeINSt3__14pairINS0_12basic_stringIcNS0_11char_traitsIcEENS0_9allocatorIcEEEEdEEN3MapIS7_dNS0_4lessIS7_EEE8PairCompEE16min_element_implEPNSE_4NodeE, symObjAddr: 0xA39C, symBinAddr: 0x10000CF10, symSize: 0x74 }
  - { offsetInCU: 0x19507, offset: 0x19507, size: 0x8, addend: 0x0, symName: __ZNSt3__16vectorINS_12basic_stringIcNS_11char_traitsIcEENS_9allocatorIcEEEENS4_IS6_EEE22__construct_one_at_endB7v160006IJRKS6_EEEvDpOT_, symObjAddr: 0xA410, symBinAddr: 0x10000CF84, symSize: 0x90 }
  - { offsetInCU: 0x19556, offset: 0x19556, size: 0x8, addend: 0x0, symName: __ZNSt3__16vectorINS_12basic_stringIcNS_11char_traitsIcEENS_9allocatorIcEEEENS4_IS6_EEE21__push_back_slow_pathIRKS6_EEvOT_, symObjAddr: 0xA4A0, symBinAddr: 0x10000D014, symSize: 0xD8 }
  - { offsetInCU: 0x195B4, offset: 0x195B4, size: 0x8, addend: 0x0, symName: __ZNKSt3__16vectorINS_12basic_stringIcNS_11char_traitsIcEENS_9allocatorIcEEEENS4_IS6_EEE11__recommendB7v160006Em, symObjAddr: 0xA578, symBinAddr: 0x10000D0EC, symSize: 0xB4 }
  - { offsetInCU: 0x19609, offset: 0x19609, size: 0x8, addend: 0x0, symName: __ZNSt3__114__split_bufferINS_12basic_stringIcNS_11char_traitsIcEENS_9allocatorIcEEEERNS4_IS6_EEEC1EmmS8_, symObjAddr: 0xA62C, symBinAddr: 0x10000D1A0, symSize: 0x44 }
  - { offsetInCU: 0x1965F, offset: 0x1965F, size: 0x8, addend: 0x0, symName: __ZNSt3__114__split_bufferINS_12basic_stringIcNS_11char_traitsIcEENS_9allocatorIcEEEERNS4_IS6_EEED1Ev, symObjAddr: 0xA788, symBinAddr: 0x10000D2FC, symSize: 0x2C }
  - { offsetInCU: 0x1968B, offset: 0x1968B, size: 0x8, addend: 0x0, symName: __ZNSt3__114__split_bufferINS_12basic_stringIcNS_11char_traitsIcEENS_9allocatorIcEEEERNS4_IS6_EEEC2EmmS8_, symObjAddr: 0xA834, symBinAddr: 0x10000D3A8, symSize: 0xE0 }
  - { offsetInCU: 0x196FE, offset: 0x196FE, size: 0x8, addend: 0x0, symName: __ZNSt3__117__compressed_pairIPNS_12basic_stringIcNS_11char_traitsIcEENS_9allocatorIcEEEERNS4_IS6_EEEC1B7v160006IDnS9_EEOT_OT0_, symObjAddr: 0xA914, symBinAddr: 0x10000D488, symSize: 0x3C }
  - { offsetInCU: 0x19756, offset: 0x19756, size: 0x8, addend: 0x0, symName: __ZNSt3__114__split_bufferINS_12basic_stringIcNS_11char_traitsIcEENS_9allocatorIcEEEERNS4_IS6_EEE7__allocB7v160006Ev, symObjAddr: 0xA950, symBinAddr: 0x10000D4C4, symSize: 0x28 }
  - { offsetInCU: 0x1977C, offset: 0x1977C, size: 0x8, addend: 0x0, symName: __ZNSt3__114__split_bufferINS_12basic_stringIcNS_11char_traitsIcEENS_9allocatorIcEEEERNS4_IS6_EEE9__end_capB7v160006Ev, symObjAddr: 0xA978, symBinAddr: 0x10000D4EC, symSize: 0x28 }
  - { offsetInCU: 0x197A2, offset: 0x197A2, size: 0x8, addend: 0x0, symName: __ZNSt3__117__compressed_pairIPNS_12basic_stringIcNS_11char_traitsIcEENS_9allocatorIcEEEERNS4_IS6_EEEC2B7v160006IDnS9_EEOT_OT0_, symObjAddr: 0xA9A0, symBinAddr: 0x10000D514, symSize: 0x48 }
  - { offsetInCU: 0x197FA, offset: 0x197FA, size: 0x8, addend: 0x0, symName: __ZNSt3__122__compressed_pair_elemIRNS_9allocatorINS_12basic_stringIcNS_11char_traitsIcEENS1_IcEEEEEELi1ELb0EEC2B7v160006IS8_vEEOT_, symObjAddr: 0xA9E8, symBinAddr: 0x10000D55C, symSize: 0x20 }
  - { offsetInCU: 0x1983C, offset: 0x1983C, size: 0x8, addend: 0x0, symName: __ZNSt3__117__compressed_pairIPNS_12basic_stringIcNS_11char_traitsIcEENS_9allocatorIcEEEERNS4_IS6_EEE6secondB7v160006Ev, symObjAddr: 0xAA08, symBinAddr: 0x10000D57C, symSize: 0x28 }
  - { offsetInCU: 0x19862, offset: 0x19862, size: 0x8, addend: 0x0, symName: __ZNSt3__122__compressed_pair_elemIRNS_9allocatorINS_12basic_stringIcNS_11char_traitsIcEENS1_IcEEEEEELi1ELb0EE5__getB7v160006Ev, symObjAddr: 0xAA30, symBinAddr: 0x10000D5A4, symSize: 0x18 }
  - { offsetInCU: 0x19888, offset: 0x19888, size: 0x8, addend: 0x0, symName: __ZNSt3__117__compressed_pairIPNS_12basic_stringIcNS_11char_traitsIcEENS_9allocatorIcEEEERNS4_IS6_EEE5firstB7v160006Ev, symObjAddr: 0xAA48, symBinAddr: 0x10000D5BC, symSize: 0x24 }
  - { offsetInCU: 0x198AE, offset: 0x198AE, size: 0x8, addend: 0x0, symName: __ZNSt3__129_AllocatorDestroyRangeReverseINS_9allocatorINS_12basic_stringIcNS_11char_traitsIcEENS1_IcEEEEEENS_16reverse_iteratorIPS6_EEEC1B7v160006ERS7_RSA_SD_, symObjAddr: 0xAC20, symBinAddr: 0x10000D794, symSize: 0x44 }
  - { offsetInCU: 0x1990B, offset: 0x1990B, size: 0x8, addend: 0x0, symName: __ZNSt3__116allocator_traitsINS_9allocatorINS_12basic_stringIcNS_11char_traitsIcEENS1_IcEEEEEEE9constructB7v160006IS6_JS6_EvEEvRS7_PT_DpOT0_, symObjAddr: 0xAC64, symBinAddr: 0x10000D7D8, symSize: 0x34 }
  - { offsetInCU: 0x19962, offset: 0x19962, size: 0x8, addend: 0x0, symName: __ZNSt3__128__exception_guard_exceptionsINS_29_AllocatorDestroyRangeReverseINS_9allocatorINS_12basic_stringIcNS_11char_traitsIcEENS2_IcEEEEEENS_16reverse_iteratorIPS7_EEEEE10__completeB7v160006Ev, symObjAddr: 0xAC98, symBinAddr: 0x10000D80C, symSize: 0x1C }
  - { offsetInCU: 0x19988, offset: 0x19988, size: 0x8, addend: 0x0, symName: __ZNSt3__128__exception_guard_exceptionsINS_29_AllocatorDestroyRangeReverseINS_9allocatorINS_12basic_stringIcNS_11char_traitsIcEENS2_IcEEEEEENS_16reverse_iteratorIPS7_EEEEED1B7v160006Ev, symObjAddr: 0xACB4, symBinAddr: 0x10000D828, symSize: 0x2C }
  - { offsetInCU: 0x199B2, offset: 0x199B2, size: 0x8, addend: 0x0, symName: __ZNSt3__128__exception_guard_exceptionsINS_29_AllocatorDestroyRangeReverseINS_9allocatorINS_12basic_stringIcNS_11char_traitsIcEENS2_IcEEEEEENS_16reverse_iteratorIPS7_EEEEEC1B7v160006ESC_, symObjAddr: 0xACE0, symBinAddr: 0x10000D854, symSize: 0x34 }
  - { offsetInCU: 0x199EB, offset: 0x199EB, size: 0x8, addend: 0x0, symName: __ZNSt3__128__exception_guard_exceptionsINS_29_AllocatorDestroyRangeReverseINS_9allocatorINS_12basic_stringIcNS_11char_traitsIcEENS2_IcEEEEEENS_16reverse_iteratorIPS7_EEEEEC2B7v160006ESC_, symObjAddr: 0xAD14, symBinAddr: 0x10000D888, symSize: 0x30 }
  - { offsetInCU: 0x19A24, offset: 0x19A24, size: 0x8, addend: 0x0, symName: __ZNSt3__129_AllocatorDestroyRangeReverseINS_9allocatorINS_12basic_stringIcNS_11char_traitsIcEENS1_IcEEEEEENS_16reverse_iteratorIPS6_EEEC2B7v160006ERS7_RSA_SD_, symObjAddr: 0xAD44, symBinAddr: 0x10000D8B8, symSize: 0x38 }
  - { offsetInCU: 0x19A7B, offset: 0x19A7B, size: 0x8, addend: 0x0, symName: __ZNSt3__19allocatorINS_12basic_stringIcNS_11char_traitsIcEENS0_IcEEEEE9constructB7v160006IS5_JS5_EEEvPT_DpOT0_, symObjAddr: 0xAD7C, symBinAddr: 0x10000D8F0, symSize: 0x30 }
  - { offsetInCU: 0x19AD1, offset: 0x19AD1, size: 0x8, addend: 0x0, symName: __ZNSt3__128__exception_guard_exceptionsINS_29_AllocatorDestroyRangeReverseINS_9allocatorINS_12basic_stringIcNS_11char_traitsIcEENS2_IcEEEEEENS_16reverse_iteratorIPS7_EEEEED2B7v160006Ev, symObjAddr: 0xADAC, symBinAddr: 0x10000D920, symSize: 0x50 }
  - { offsetInCU: 0x19AFB, offset: 0x19AFB, size: 0x8, addend: 0x0, symName: __ZNKSt3__129_AllocatorDestroyRangeReverseINS_9allocatorINS_12basic_stringIcNS_11char_traitsIcEENS1_IcEEEEEENS_16reverse_iteratorIPS6_EEEclB7v160006Ev, symObjAddr: 0xADFC, symBinAddr: 0x10000D970, symSize: 0xB4 }
  - { offsetInCU: 0x19B22, offset: 0x19B22, size: 0x8, addend: 0x0, symName: __ZNSt3__116reverse_iteratorINS0_IPNS_12basic_stringIcNS_11char_traitsIcEENS_9allocatorIcEEEEEEEC1B7v160006ES8_, symObjAddr: 0xAF20, symBinAddr: 0x10000DA94, symSize: 0x3C }
  - { offsetInCU: 0x19B5A, offset: 0x19B5A, size: 0x8, addend: 0x0, symName: __ZNSt3__116reverse_iteratorINS0_IPNS_12basic_stringIcNS_11char_traitsIcEENS_9allocatorIcEEEEEEEppB7v160006Ev, symObjAddr: 0xAFE0, symBinAddr: 0x10000DB54, symSize: 0x30 }
  - { offsetInCU: 0x19B80, offset: 0x19B80, size: 0x8, addend: 0x0, symName: __ZNKSt3__116reverse_iteratorINS0_IPNS_12basic_stringIcNS_11char_traitsIcEENS_9allocatorIcEEEEEEE4baseB7v160006Ev, symObjAddr: 0xB010, symBinAddr: 0x10000DB84, symSize: 0x24 }
  - { offsetInCU: 0x19BAB, offset: 0x19BAB, size: 0x8, addend: 0x0, symName: __ZNSt3__119__to_address_helperINS_16reverse_iteratorINS1_IPNS_12basic_stringIcNS_11char_traitsIcEENS_9allocatorIcEEEEEEEEvE6__callB7v160006ERKSA_, symObjAddr: 0xB034, symBinAddr: 0x10000DBA8, symSize: 0x38 }
  - { offsetInCU: 0x19BCE, offset: 0x19BCE, size: 0x8, addend: 0x0, symName: __ZNKSt3__116reverse_iteratorINS0_IPNS_12basic_stringIcNS_11char_traitsIcEENS_9allocatorIcEEEEEEEptB7v160006Ev, symObjAddr: 0xB06C, symBinAddr: 0x10000DBE0, symSize: 0x24 }
  - { offsetInCU: 0x19BF4, offset: 0x19BF4, size: 0x8, addend: 0x0, symName: __ZNKSt3__116reverse_iteratorINS0_IPNS_12basic_stringIcNS_11char_traitsIcEENS_9allocatorIcEEEEEEEdeB7v160006Ev, symObjAddr: 0xB090, symBinAddr: 0x10000DC04, symSize: 0x34 }
  - { offsetInCU: 0x19C28, offset: 0x19C28, size: 0x8, addend: 0x0, symName: __ZNSt3__116reverse_iteratorIPNS_12basic_stringIcNS_11char_traitsIcEENS_9allocatorIcEEEEEmmB7v160006Ev, symObjAddr: 0xB0C4, symBinAddr: 0x10000DC38, symSize: 0x20 }
  - { offsetInCU: 0x19C4E, offset: 0x19C4E, size: 0x8, addend: 0x0, symName: __ZNSt3__116reverse_iteratorINS0_IPNS_12basic_stringIcNS_11char_traitsIcEENS_9allocatorIcEEEEEEEC2B7v160006ES8_, symObjAddr: 0xB0E4, symBinAddr: 0x10000DC58, symSize: 0x2C }
  - { offsetInCU: 0x19C86, offset: 0x19C86, size: 0x8, addend: 0x0, symName: __ZNSt3__114__split_bufferINS_12basic_stringIcNS_11char_traitsIcEENS_9allocatorIcEEEERNS4_IS6_EEED2Ev, symObjAddr: 0xB110, symBinAddr: 0x10000DC84, symSize: 0x8C }
  - { offsetInCU: 0x19CB2, offset: 0x19CB2, size: 0x8, addend: 0x0, symName: __ZNSt3__114__split_bufferINS_12basic_stringIcNS_11char_traitsIcEENS_9allocatorIcEEEERNS4_IS6_EEE5clearB7v160006Ev, symObjAddr: 0xB19C, symBinAddr: 0x10000DD10, symSize: 0x28 }
  - { offsetInCU: 0x19CD8, offset: 0x19CD8, size: 0x8, addend: 0x0, symName: __ZNKSt3__114__split_bufferINS_12basic_stringIcNS_11char_traitsIcEENS_9allocatorIcEEEERNS4_IS6_EEE8capacityB7v160006Ev, symObjAddr: 0xB1C4, symBinAddr: 0x10000DD38, symSize: 0x40 }
  - { offsetInCU: 0x19CFE, offset: 0x19CFE, size: 0x8, addend: 0x0, symName: __ZNSt3__114__split_bufferINS_12basic_stringIcNS_11char_traitsIcEENS_9allocatorIcEEEERNS4_IS6_EEE17__destruct_at_endB7v160006EPS6_, symObjAddr: 0xB204, symBinAddr: 0x10000DD78, symSize: 0x2C }
  - { offsetInCU: 0x19D32, offset: 0x19D32, size: 0x8, addend: 0x0, symName: __ZNSt3__114__split_bufferINS_12basic_stringIcNS_11char_traitsIcEENS_9allocatorIcEEEERNS4_IS6_EEE17__destruct_at_endB7v160006EPS6_NS_17integral_constantIbLb0EEE, symObjAddr: 0xB230, symBinAddr: 0x10000DDA4, symSize: 0x80 }
  - { offsetInCU: 0x19D73, offset: 0x19D73, size: 0x8, addend: 0x0, symName: __ZNKSt3__114__split_bufferINS_12basic_stringIcNS_11char_traitsIcEENS_9allocatorIcEEEERNS4_IS6_EEE9__end_capB7v160006Ev, symObjAddr: 0xB2B0, symBinAddr: 0x10000DE24, symSize: 0x28 }
  - { offsetInCU: 0x19D99, offset: 0x19D99, size: 0x8, addend: 0x0, symName: __ZNKSt3__117__compressed_pairIPNS_12basic_stringIcNS_11char_traitsIcEENS_9allocatorIcEEEERNS4_IS6_EEE5firstB7v160006Ev, symObjAddr: 0xB2D8, symBinAddr: 0x10000DE4C, symSize: 0x24 }
  - { offsetInCU: 0x19DBF, offset: 0x19DBF, size: 0x8, addend: 0x0, symName: __ZNSt3__16vectorIdNS_9allocatorIdEEE22__construct_one_at_endB7v160006IJRKdEEEvDpOT_, symObjAddr: 0xB2FC, symBinAddr: 0x10000DE70, symSize: 0x90 }
  - { offsetInCU: 0x19E0E, offset: 0x19E0E, size: 0x8, addend: 0x0, symName: __ZNSt3__16vectorIdNS_9allocatorIdEEE21__push_back_slow_pathIRKdEEvOT_, symObjAddr: 0xB38C, symBinAddr: 0x10000DF00, symSize: 0xD8 }
  - { offsetInCU: 0x19E6C, offset: 0x19E6C, size: 0x8, addend: 0x0, symName: __ZNSt3__116allocator_traitsINS_9allocatorIdEEE9constructB7v160006IdJRKdEvEEvRS2_PT_DpOT0_, symObjAddr: 0xB464, symBinAddr: 0x10000DFD8, symSize: 0x34 }
  - { offsetInCU: 0x19EC3, offset: 0x19EC3, size: 0x8, addend: 0x0, symName: __ZNSt3__19allocatorIdE9constructB7v160006IdJRKdEEEvPT_DpOT0_, symObjAddr: 0xB498, symBinAddr: 0x10000E00C, symSize: 0x28 }
  - { offsetInCU: 0x19F19, offset: 0x19F19, size: 0x8, addend: 0x0, symName: __ZNKSt3__16vectorIdNS_9allocatorIdEEE11__recommendB7v160006Em, symObjAddr: 0xB4C0, symBinAddr: 0x10000E034, symSize: 0xB4 }
  - { offsetInCU: 0x19F6E, offset: 0x19F6E, size: 0x8, addend: 0x0, symName: __ZNSt3__114__split_bufferIdRNS_9allocatorIdEEEC1EmmS3_, symObjAddr: 0xB574, symBinAddr: 0x10000E0E8, symSize: 0x44 }
  - { offsetInCU: 0x19FC4, offset: 0x19FC4, size: 0x8, addend: 0x0, symName: __ZNSt3__114__split_bufferIdRNS_9allocatorIdEEED1Ev, symObjAddr: 0xB6D0, symBinAddr: 0x10000E244, symSize: 0x2C }
  - { offsetInCU: 0x19FF0, offset: 0x19FF0, size: 0x8, addend: 0x0, symName: __ZNSt3__114__split_bufferIdRNS_9allocatorIdEEEC2EmmS3_, symObjAddr: 0xB6FC, symBinAddr: 0x10000E270, symSize: 0xD4 }
  - { offsetInCU: 0x1A063, offset: 0x1A063, size: 0x8, addend: 0x0, symName: __ZNSt3__117__compressed_pairIPdRNS_9allocatorIdEEEC1B7v160006IDnS4_EEOT_OT0_, symObjAddr: 0xB7D0, symBinAddr: 0x10000E344, symSize: 0x3C }
  - { offsetInCU: 0x1A0BB, offset: 0x1A0BB, size: 0x8, addend: 0x0, symName: __ZNSt3__114__split_bufferIdRNS_9allocatorIdEEE7__allocB7v160006Ev, symObjAddr: 0xB80C, symBinAddr: 0x10000E380, symSize: 0x28 }
  - { offsetInCU: 0x1A0E1, offset: 0x1A0E1, size: 0x8, addend: 0x0, symName: __ZNSt3__114__split_bufferIdRNS_9allocatorIdEEE9__end_capB7v160006Ev, symObjAddr: 0xB834, symBinAddr: 0x10000E3A8, symSize: 0x28 }
  - { offsetInCU: 0x1A107, offset: 0x1A107, size: 0x8, addend: 0x0, symName: __ZNSt3__117__compressed_pairIPdRNS_9allocatorIdEEEC2B7v160006IDnS4_EEOT_OT0_, symObjAddr: 0xB85C, symBinAddr: 0x10000E3D0, symSize: 0x48 }
  - { offsetInCU: 0x1A15F, offset: 0x1A15F, size: 0x8, addend: 0x0, symName: __ZNSt3__122__compressed_pair_elemIRNS_9allocatorIdEELi1ELb0EEC2B7v160006IS3_vEEOT_, symObjAddr: 0xB8A4, symBinAddr: 0x10000E418, symSize: 0x20 }
  - { offsetInCU: 0x1A1A1, offset: 0x1A1A1, size: 0x8, addend: 0x0, symName: __ZNSt3__117__compressed_pairIPdRNS_9allocatorIdEEE6secondB7v160006Ev, symObjAddr: 0xB8C4, symBinAddr: 0x10000E438, symSize: 0x28 }
  - { offsetInCU: 0x1A1C7, offset: 0x1A1C7, size: 0x8, addend: 0x0, symName: __ZNSt3__122__compressed_pair_elemIRNS_9allocatorIdEELi1ELb0EE5__getB7v160006Ev, symObjAddr: 0xB8EC, symBinAddr: 0x10000E460, symSize: 0x18 }
  - { offsetInCU: 0x1A1ED, offset: 0x1A1ED, size: 0x8, addend: 0x0, symName: __ZNSt3__117__compressed_pairIPdRNS_9allocatorIdEEE5firstB7v160006Ev, symObjAddr: 0xB904, symBinAddr: 0x10000E478, symSize: 0x24 }
  - { offsetInCU: 0x1A213, offset: 0x1A213, size: 0x8, addend: 0x0, symName: __ZNSt3__116reverse_iteratorIPdEC1B7v160006ES1_, symObjAddr: 0xB9A0, symBinAddr: 0x10000E514, symSize: 0x34 }
  - { offsetInCU: 0x1A24B, offset: 0x1A24B, size: 0x8, addend: 0x0, symName: __ZNKSt3__116reverse_iteratorIPdE4baseB7v160006Ev, symObjAddr: 0xB9D4, symBinAddr: 0x10000E548, symSize: 0x18 }
  - { offsetInCU: 0x1A295, offset: 0x1A295, size: 0x8, addend: 0x0, symName: __ZNKSt3__111__move_loopINS_17_ClassicAlgPolicyEEclB7v160006INS_16reverse_iteratorIPdEES6_S6_EENS_4pairIT_T1_EES8_T0_S9_, symObjAddr: 0xBD28, symBinAddr: 0x10000E89C, symSize: 0xA0 }
  - { offsetInCU: 0x1A300, offset: 0x1A300, size: 0x8, addend: 0x0, symName: __ZNSt3__18_IterOpsINS_17_ClassicAlgPolicyEE11__iter_moveB7v160006IRNS_16reverse_iteratorIPdEEEENS_9enable_ifIXsr12is_referenceIDTdeclsr3stdE7declvalIRT_EEEEE5valueEDTclsr3stdE4movedeclsr3stdE7declvalISA_EEEEE4typeEOS9_, symObjAddr: 0xBF5C, symBinAddr: 0x10000EAD0, symSize: 0x28 }
  - { offsetInCU: 0x1A32C, offset: 0x1A32C, size: 0x8, addend: 0x0, symName: __ZNKSt3__116reverse_iteratorIPdEdeB7v160006Ev, symObjAddr: 0xBF84, symBinAddr: 0x10000EAF8, symSize: 0x28 }
  - { offsetInCU: 0x1A360, offset: 0x1A360, size: 0x8, addend: 0x0, symName: __ZNSt3__116reverse_iteratorIPdEppB7v160006Ev, symObjAddr: 0xBFAC, symBinAddr: 0x10000EB20, symSize: 0x20 }
  - { offsetInCU: 0x1A386, offset: 0x1A386, size: 0x8, addend: 0x0, symName: __ZNSt3__18_IterOpsINS_17_ClassicAlgPolicyEE25__validate_iter_referenceB7v160006IRNS_16reverse_iteratorIPdEEEEvv, symObjAddr: 0xBFCC, symBinAddr: 0x10000EB40, symSize: 0x4 }
  - { offsetInCU: 0x1A3A4, offset: 0x1A3A4, size: 0x8, addend: 0x0, symName: __ZNSt3__118__unwrap_iter_implINS_16reverse_iteratorIPdEELb0EE8__unwrapB7v160006ES3_, symObjAddr: 0xBFD0, symBinAddr: 0x10000EB44, symSize: 0x24 }
  - { offsetInCU: 0x1A3CD, offset: 0x1A3CD, size: 0x8, addend: 0x0, symName: __ZNSt3__14pairINS_16reverse_iteratorIPdEES3_EC1B7v160006IS3_S3_LPv0EEEOT_OT0_, symObjAddr: 0xBFF4, symBinAddr: 0x10000EB68, symSize: 0x3C }
  - { offsetInCU: 0x1A42B, offset: 0x1A42B, size: 0x8, addend: 0x0, symName: __ZNSt3__14pairINS_16reverse_iteratorIPdEES3_EC2B7v160006IS3_S3_LPv0EEEOT_OT0_, symObjAddr: 0xC030, symBinAddr: 0x10000EBA4, symSize: 0x34 }
  - { offsetInCU: 0x1A489, offset: 0x1A489, size: 0x8, addend: 0x0, symName: __ZNSt3__118__unwrap_iter_implINS_16reverse_iteratorIPdEELb0EE8__rewrapB7v160006ES3_S3_, symObjAddr: 0xC064, symBinAddr: 0x10000EBD8, symSize: 0x2C }
  - { offsetInCU: 0x1A4B7, offset: 0x1A4B7, size: 0x8, addend: 0x0, symName: __ZNSt3__116reverse_iteratorIPdEC2B7v160006ES1_, symObjAddr: 0xC090, symBinAddr: 0x10000EC04, symSize: 0x28 }
  - { offsetInCU: 0x1A4EF, offset: 0x1A4EF, size: 0x8, addend: 0x0, symName: __ZNSt3__114__split_bufferIdRNS_9allocatorIdEEED2Ev, symObjAddr: 0xC0B8, symBinAddr: 0x10000EC2C, symSize: 0x8C }
  - { offsetInCU: 0x1A51B, offset: 0x1A51B, size: 0x8, addend: 0x0, symName: __ZNSt3__114__split_bufferIdRNS_9allocatorIdEEE5clearB7v160006Ev, symObjAddr: 0xC144, symBinAddr: 0x10000ECB8, symSize: 0x28 }
  - { offsetInCU: 0x1A541, offset: 0x1A541, size: 0x8, addend: 0x0, symName: __ZNKSt3__114__split_bufferIdRNS_9allocatorIdEEE8capacityB7v160006Ev, symObjAddr: 0xC16C, symBinAddr: 0x10000ECE0, symSize: 0x40 }
  - { offsetInCU: 0x1A567, offset: 0x1A567, size: 0x8, addend: 0x0, symName: __ZNSt3__114__split_bufferIdRNS_9allocatorIdEEE17__destruct_at_endB7v160006EPd, symObjAddr: 0xC1AC, symBinAddr: 0x10000ED20, symSize: 0x2C }
  - { offsetInCU: 0x1A59B, offset: 0x1A59B, size: 0x8, addend: 0x0, symName: __ZNSt3__114__split_bufferIdRNS_9allocatorIdEEE17__destruct_at_endB7v160006EPdNS_17integral_constantIbLb0EEE, symObjAddr: 0xC1D8, symBinAddr: 0x10000ED4C, symSize: 0x80 }
  - { offsetInCU: 0x1A5DC, offset: 0x1A5DC, size: 0x8, addend: 0x0, symName: __ZNKSt3__114__split_bufferIdRNS_9allocatorIdEEE9__end_capB7v160006Ev, symObjAddr: 0xC258, symBinAddr: 0x10000EDCC, symSize: 0x28 }
  - { offsetInCU: 0x1A602, offset: 0x1A602, size: 0x8, addend: 0x0, symName: __ZNKSt3__117__compressed_pairIPdRNS_9allocatorIdEEE5firstB7v160006Ev, symObjAddr: 0xC280, symBinAddr: 0x10000EDF4, symSize: 0x24 }
  - { offsetInCU: 0x1A628, offset: 0x1A628, size: 0x8, addend: 0x0, symName: __ZN16BinarySearchTreeINSt3__14pairINS0_12basic_stringIcNS0_11char_traitsIcEENS0_9allocatorIcEEEEdEEN3MapIS7_dNS0_4lessIS7_EEE8PairCompEE21min_greater_than_implEPNSE_4NodeERKS8_SD_, symObjAddr: 0xC2A4, symBinAddr: 0x10000EE18, symSize: 0x138 }
  - { offsetInCU: 0x1A6D3, offset: 0x1A6D3, size: 0x8, addend: 0x0, symName: __ZN11safe_equalsIRNSt3__16vectorINS0_12basic_stringIcNS0_11char_traitsIcEENS0_9allocatorIcEEEENS5_IS7_EEEESA_vE6equalsESA_SA_, symObjAddr: 0xC3DC, symBinAddr: 0x10000EF50, symSize: 0x30 }
  - { offsetInCU: 0x1A705, offset: 0x1A705, size: 0x8, addend: 0x0, symName: __Z5printINSt3__16vectorINS0_12basic_stringIcNS0_11char_traitsIcEENS0_9allocatorIcEEEENS5_IS7_EEEEERNS0_13basic_ostreamIcS4_EESC_RKT_, symObjAddr: 0xC40C, symBinAddr: 0x10000EF80, symSize: 0x38 }
  - { offsetInCU: 0x1A748, offset: 0x1A748, size: 0x8, addend: 0x0, symName: __Z18safe_equals_helperINSt3__16vectorINS0_12basic_stringIcNS0_11char_traitsIcEENS0_9allocatorIcEEEENS5_IS7_EEEES9_EbRKT_RKT0_, symObjAddr: 0xC444, symBinAddr: 0x10000EFB8, symSize: 0x30 }
  - { offsetInCU: 0x1A798, offset: 0x1A798, size: 0x8, addend: 0x0, symName: __ZNKSt3__16vectorINS_12basic_stringIcNS_11char_traitsIcEENS_9allocatorIcEEEENS4_IS6_EEE5beginB7v160006Ev, symObjAddr: 0xC560, symBinAddr: 0x10000F0D4, symSize: 0x30 }
  - { offsetInCU: 0x1A7C0, offset: 0x1A7C0, size: 0x8, addend: 0x0, symName: __ZNKSt3__16vectorINS_12basic_stringIcNS_11char_traitsIcEENS_9allocatorIcEEEENS4_IS6_EEE3endB7v160006Ev, symObjAddr: 0xC590, symBinAddr: 0x10000F104, symSize: 0x30 }
  - { offsetInCU: 0x1A7F2, offset: 0x1A7F2, size: 0x8, addend: 0x0, symName: __ZNKSt3__110__equal_toclB7v160006INS_12basic_stringIcNS_11char_traitsIcEENS_9allocatorIcEEEES7_EEbRKT_RKT0_, symObjAddr: 0xC6A4, symBinAddr: 0x10000F218, symSize: 0x34 }
  - { offsetInCU: 0x1A846, offset: 0x1A846, size: 0x8, addend: 0x0, symName: __ZNKSt3__111__wrap_iterIPKNS_12basic_stringIcNS_11char_traitsIcEENS_9allocatorIcEEEEEdeB7v160006Ev, symObjAddr: 0xC6D8, symBinAddr: 0x10000F24C, symSize: 0x18 }
  - { offsetInCU: 0x1A86C, offset: 0x1A86C, size: 0x8, addend: 0x0, symName: __ZNSt3__111__wrap_iterIPKNS_12basic_stringIcNS_11char_traitsIcEENS_9allocatorIcEEEEEppB7v160006Ev, symObjAddr: 0xC6F0, symBinAddr: 0x10000F264, symSize: 0x20 }
  - { offsetInCU: 0x1A892, offset: 0x1A892, size: 0x8, addend: 0x0, symName: __ZNKSt3__111__wrap_iterIPKNS_12basic_stringIcNS_11char_traitsIcEENS_9allocatorIcEEEEE4baseB7v160006Ev, symObjAddr: 0xC758, symBinAddr: 0x10000F2CC, symSize: 0x18 }
  - { offsetInCU: 0x1A8B8, offset: 0x1A8B8, size: 0x8, addend: 0x0, symName: __ZNKSt3__16vectorINS_12basic_stringIcNS_11char_traitsIcEENS_9allocatorIcEEEENS4_IS6_EEE11__make_iterB7v160006EPKS6_, symObjAddr: 0xC8B8, symBinAddr: 0x10000F42C, symSize: 0x34 }
  - { offsetInCU: 0x1A8ED, offset: 0x1A8ED, size: 0x8, addend: 0x0, symName: __ZNSt3__111__wrap_iterIPKNS_12basic_stringIcNS_11char_traitsIcEENS_9allocatorIcEEEEEC1B7v160006EPKvS8_, symObjAddr: 0xC8EC, symBinAddr: 0x10000F460, symSize: 0x3C }
  - { offsetInCU: 0x1A933, offset: 0x1A933, size: 0x8, addend: 0x0, symName: __ZNSt3__111__wrap_iterIPKNS_12basic_stringIcNS_11char_traitsIcEENS_9allocatorIcEEEEEC2B7v160006EPKvS8_, symObjAddr: 0xC928, symBinAddr: 0x10000F49C, symSize: 0x24 }
  - { offsetInCU: 0x1A978, offset: 0x1A978, size: 0x8, addend: 0x0, symName: __Z12print_helperINSt3__16vectorINS0_12basic_stringIcNS0_11char_traitsIcEENS0_9allocatorIcEEEENS5_IS7_EEEEERDTcmcl5printfp_decldtfp0_5beginEEcl5printfp_decldtfp0_3endEEERNS0_13basic_ostreamIcS4_EERKT_iz, symObjAddr: 0xC94C, symBinAddr: 0x10000F4C0, symSize: 0x30 }
  - { offsetInCU: 0x1A9C8, offset: 0x1A9C8, size: 0x8, addend: 0x0, symName: __Z21print_sequence_helperINSt3__16vectorINS0_12basic_stringIcNS0_11char_traitsIcEENS0_9allocatorIcEEEENS5_IS7_EEEEERDTcl5printfp_cmdeclsr3stdE5beginfp0_Edeclsr3stdE3endfp0_EEERNS0_13basic_ostreamIcS4_EERKT_, symObjAddr: 0xC97C, symBinAddr: 0x10000F4F0, symSize: 0x134 }
  - { offsetInCU: 0x1AA19, offset: 0x1AA19, size: 0x8, addend: 0x0, symName: __Z5printINSt3__112basic_stringIcNS0_11char_traitsIcEENS0_9allocatorIcEEEEERNS0_13basic_ostreamIcS3_EES9_RKT_, symObjAddr: 0xCB08, symBinAddr: 0x10000F67C, symSize: 0x34 }
  - { offsetInCU: 0x1AA5C, offset: 0x1AA5C, size: 0x8, addend: 0x0, symName: __Z12print_helperINSt3__112basic_stringIcNS0_11char_traitsIcEENS0_9allocatorIcEEEEERDTlsfp_fp0_ERNS0_13basic_ostreamIcS3_EERKT_ii, symObjAddr: 0xCB3C, symBinAddr: 0x10000F6B0, symSize: 0x34 }
  - { offsetInCU: 0x1AB0A, offset: 0x1AB0A, size: 0x8, addend: 0x0, symName: __ZN11safe_equalsIRNSt3__16vectorIdNS0_9allocatorIdEEEES5_vE6equalsES5_S5_, symObjAddr: 0xCB70, symBinAddr: 0x10000F6E4, symSize: 0x30 }
  - { offsetInCU: 0x1AB3C, offset: 0x1AB3C, size: 0x8, addend: 0x0, symName: __Z5printINSt3__16vectorIdNS0_9allocatorIdEEEEERNS0_13basic_ostreamIcNS0_11char_traitsIcEEEES9_RKT_, symObjAddr: 0xCBA0, symBinAddr: 0x10000F714, symSize: 0x38 }
  - { offsetInCU: 0x1AB7F, offset: 0x1AB7F, size: 0x8, addend: 0x0, symName: __Z18safe_equals_helperINSt3__16vectorIdNS0_9allocatorIdEEEES4_EbRKT_RKT0_, symObjAddr: 0xCBD8, symBinAddr: 0x10000F74C, symSize: 0x30 }
  - { offsetInCU: 0x1ABCF, offset: 0x1ABCF, size: 0x8, addend: 0x0, symName: __ZNKSt3__16vectorIdNS_9allocatorIdEEE5beginB7v160006Ev, symObjAddr: 0xCCF4, symBinAddr: 0x10000F868, symSize: 0x30 }
  - { offsetInCU: 0x1ABF7, offset: 0x1ABF7, size: 0x8, addend: 0x0, symName: __ZNKSt3__16vectorIdNS_9allocatorIdEEE3endB7v160006Ev, symObjAddr: 0xCD24, symBinAddr: 0x10000F898, symSize: 0x30 }
  - { offsetInCU: 0x1AC1F, offset: 0x1AC1F, size: 0x8, addend: 0x0, symName: __ZNKSt3__110__equal_toclB7v160006IddEEbRKT_RKT0_, symObjAddr: 0xCE38, symBinAddr: 0x10000F9AC, symSize: 0x34 }
  - { offsetInCU: 0x1AC73, offset: 0x1AC73, size: 0x8, addend: 0x0, symName: __ZNKSt3__111__wrap_iterIPKdEdeB7v160006Ev, symObjAddr: 0xCE6C, symBinAddr: 0x10000F9E0, symSize: 0x18 }
  - { offsetInCU: 0x1AC99, offset: 0x1AC99, size: 0x8, addend: 0x0, symName: __ZNSt3__111__wrap_iterIPKdEppB7v160006Ev, symObjAddr: 0xCE84, symBinAddr: 0x10000F9F8, symSize: 0x20 }
  - { offsetInCU: 0x1ACBF, offset: 0x1ACBF, size: 0x8, addend: 0x0, symName: __ZNKSt3__111__wrap_iterIPKdE4baseB7v160006Ev, symObjAddr: 0xCEEC, symBinAddr: 0x10000FA60, symSize: 0x18 }
  - { offsetInCU: 0x1ACE5, offset: 0x1ACE5, size: 0x8, addend: 0x0, symName: __ZNKSt3__16vectorIdNS_9allocatorIdEEE11__make_iterB7v160006EPKd, symObjAddr: 0xCF04, symBinAddr: 0x10000FA78, symSize: 0x34 }
  - { offsetInCU: 0x1AD1A, offset: 0x1AD1A, size: 0x8, addend: 0x0, symName: __ZNSt3__111__wrap_iterIPKdEC1B7v160006EPKvS2_, symObjAddr: 0xCF38, symBinAddr: 0x10000FAAC, symSize: 0x3C }
  - { offsetInCU: 0x1AD60, offset: 0x1AD60, size: 0x8, addend: 0x0, symName: __ZNSt3__111__wrap_iterIPKdEC2B7v160006EPKvS2_, symObjAddr: 0xCF74, symBinAddr: 0x10000FAE8, symSize: 0x24 }
  - { offsetInCU: 0x1ADA5, offset: 0x1ADA5, size: 0x8, addend: 0x0, symName: __Z12print_helperINSt3__16vectorIdNS0_9allocatorIdEEEEERDTcmcl5printfp_decldtfp0_5beginEEcl5printfp_decldtfp0_3endEEERNS0_13basic_ostreamIcNS0_11char_traitsIcEEEERKT_iz, symObjAddr: 0xCF98, symBinAddr: 0x10000FB0C, symSize: 0x30 }
  - { offsetInCU: 0x1ADF5, offset: 0x1ADF5, size: 0x8, addend: 0x0, symName: __Z21print_sequence_helperINSt3__16vectorIdNS0_9allocatorIdEEEEERDTcl5printfp_cmdeclsr3stdE5beginfp0_Edeclsr3stdE3endfp0_EEERNS0_13basic_ostreamIcNS0_11char_traitsIcEEEERKT_, symObjAddr: 0xCFC8, symBinAddr: 0x10000FB3C, symSize: 0x134 }
  - { offsetInCU: 0x1AE9B, offset: 0x1AE9B, size: 0x8, addend: 0x0, symName: __ZN11safe_equalsIRN16BinarySearchTreeINSt3__14pairINS1_12basic_stringIcNS1_11char_traitsIcEENS1_9allocatorIcEEEEdEEN3MapIS8_dNS1_4lessIS8_EEE8PairCompEE8IteratorESG_vE10not_equalsESH_RKSG_, symObjAddr: 0xD154, symBinAddr: 0x10000FCC8, symSize: 0x30 }
  - { offsetInCU: 0x1AECD, offset: 0x1AECD, size: 0x8, addend: 0x0, symName: __Z5printIN16BinarySearchTreeINSt3__14pairINS1_12basic_stringIcNS1_11char_traitsIcEENS1_9allocatorIcEEEEdEEN3MapIS8_dNS1_4lessIS8_EEE8PairCompEE8IteratorEERNS1_13basic_ostreamIcS5_EESJ_RKT_, symObjAddr: 0xD184, symBinAddr: 0x10000FCF8, symSize: 0x38 }
  - { offsetInCU: 0x1AF10, offset: 0x1AF10, size: 0x8, addend: 0x0, symName: __Z22safe_not_equals_helperIN16BinarySearchTreeINSt3__14pairINS1_12basic_stringIcNS1_11char_traitsIcEENS1_9allocatorIcEEEEdEEN3MapIS8_dNS1_4lessIS8_EEE8PairCompEE8IteratorESG_EbRKT_RKT0_, symObjAddr: 0xD1BC, symBinAddr: 0x10000FD30, symSize: 0x30 }
  - { offsetInCU: 0x1AF5F, offset: 0x1AF5F, size: 0x8, addend: 0x0, symName: __Z12print_helperIN16BinarySearchTreeINSt3__14pairINS1_12basic_stringIcNS1_11char_traitsIcEENS1_9allocatorIcEEEEdEEN3MapIS8_dNS1_4lessIS8_EEE8PairCompEE8IteratorEERNS1_13basic_ostreamIcS5_EESJ_RKT_z, symObjAddr: 0xD1EC, symBinAddr: 0x10000FD60, symSize: 0xA4 }
  - { offsetInCU: 0x1AFF6, offset: 0x1AFF6, size: 0x8, addend: 0x0, symName: __ZN11safe_equalsIRNSt3__112basic_stringIcNS0_11char_traitsIcEENS0_9allocatorIcEEEERA3_KcvE6equalsES7_SA_, symObjAddr: 0xD290, symBinAddr: 0x10000FE04, symSize: 0x30 }
  - { offsetInCU: 0x1B028, offset: 0x1B028, size: 0x8, addend: 0x0, symName: __Z5printIA3_cERNSt3__113basic_ostreamIcNS1_11char_traitsIcEEEES6_RKT_, symObjAddr: 0xD2C0, symBinAddr: 0x10000FE34, symSize: 0x34 }
  - { offsetInCU: 0x1B06B, offset: 0x1B06B, size: 0x8, addend: 0x0, symName: __Z18safe_equals_helperINSt3__112basic_stringIcNS0_11char_traitsIcEENS0_9allocatorIcEEEEA3_cEbRKT_RKT0_, symObjAddr: 0xD2F4, symBinAddr: 0x10000FE68, symSize: 0x30 }
  - { offsetInCU: 0x1B0BB, offset: 0x1B0BB, size: 0x8, addend: 0x0, symName: __ZNSt3__111char_traitsIcE6lengthEPKc, symObjAddr: 0xD3D0, symBinAddr: 0x10000FF44, symSize: 0x34 }
  - { offsetInCU: 0x1B0DD, offset: 0x1B0DD, size: 0x8, addend: 0x0, symName: __Z12print_helperILm3EERNSt3__113basic_ostreamIcNS0_11char_traitsIcEEEES5_RAT__Kcii, symObjAddr: 0xD428, symBinAddr: 0x10000FF9C, symSize: 0xA4 }
  - { offsetInCU: 0x1B153, offset: 0x1B153, size: 0x8, addend: 0x0, symName: __Z21print_sequence_helperIA3_cERDTcl5printfp_cmdeclsr3stdE5beginfp0_Edeclsr3stdE3endfp0_EEERNSt3__113basic_ostreamIcNS3_11char_traitsIcEEEERKT_, symObjAddr: 0xD4CC, symBinAddr: 0x100010040, symSize: 0x10C }
  - { offsetInCU: 0x1B1A4, offset: 0x1B1A4, size: 0x8, addend: 0x0, symName: __Z5printIcERNSt3__113basic_ostreamIcNS0_11char_traitsIcEEEES5_RKT_, symObjAddr: 0xD604, symBinAddr: 0x100010178, symSize: 0x34 }
  - { offsetInCU: 0x1B1E7, offset: 0x1B1E7, size: 0x8, addend: 0x0, symName: __Z12print_helperIcERDTlsfp_fp0_ERNSt3__113basic_ostreamIcNS2_11char_traitsIcEEEERKT_ii, symObjAddr: 0xD638, symBinAddr: 0x1000101AC, symSize: 0x38 }
  - { offsetInCU: 0x1B295, offset: 0x1B295, size: 0x8, addend: 0x0, symName: __ZN11safe_equalsIRddvE6equalsES0_RKd, symObjAddr: 0xD670, symBinAddr: 0x1000101E4, symSize: 0x30 }
  - { offsetInCU: 0x1B2C7, offset: 0x1B2C7, size: 0x8, addend: 0x0, symName: __Z18safe_equals_helperIddEbRKT_RKT0_, symObjAddr: 0xD6A0, symBinAddr: 0x100010214, symSize: 0x30 }
  - { offsetInCU: 0x1B317, offset: 0x1B317, size: 0x8, addend: 0x0, symName: __ZNSt3__16vectorIdNS_9allocatorIdEEED2B7v160006Ev, symObjAddr: 0xD6D0, symBinAddr: 0x100010244, symSize: 0x44 }
  - { offsetInCU: 0x1B341, offset: 0x1B341, size: 0x8, addend: 0x0, symName: __ZN3MapINSt3__112basic_stringIcNS0_11char_traitsIcEENS0_9allocatorIcEEEEdNS0_4lessIS6_EEED2Ev, symObjAddr: 0xD714, symBinAddr: 0x100010288, symSize: 0x2C }
  - { offsetInCU: 0x1B36D, offset: 0x1B36D, size: 0x8, addend: 0x0, symName: __ZN16BinarySearchTreeINSt3__14pairINS0_12basic_stringIcNS0_11char_traitsIcEENS0_9allocatorIcEEEEdEEN3MapIS7_dNS0_4lessIS7_EEE8PairCompEED1Ev, symObjAddr: 0xD740, symBinAddr: 0x1000102B4, symSize: 0x2C }
  - { offsetInCU: 0x1B397, offset: 0x1B397, size: 0x8, addend: 0x0, symName: __ZN16BinarySearchTreeINSt3__14pairINS0_12basic_stringIcNS0_11char_traitsIcEENS0_9allocatorIcEEEEdEEN3MapIS7_dNS0_4lessIS7_EEE8PairCompEED2Ev, symObjAddr: 0xD76C, symBinAddr: 0x1000102E0, symSize: 0x38 }
  - { offsetInCU: 0x1B3C1, offset: 0x1B3C1, size: 0x8, addend: 0x0, symName: __ZN16BinarySearchTreeINSt3__14pairINS0_12basic_stringIcNS0_11char_traitsIcEENS0_9allocatorIcEEEEdEEN3MapIS7_dNS0_4lessIS7_EEE8PairCompEE18destroy_nodes_implEPNSE_4NodeE, symObjAddr: 0xD7A4, symBinAddr: 0x100010318, symSize: 0xA8 }
  - { offsetInCU: 0x1B3E5, offset: 0x1B3E5, size: 0x8, addend: 0x0, symName: __ZN16BinarySearchTreeINSt3__14pairINS0_12basic_stringIcNS0_11char_traitsIcEENS0_9allocatorIcEEEEdEEN3MapIS7_dNS0_4lessIS7_EEE8PairCompEE4NodeD1Ev, symObjAddr: 0xD84C, symBinAddr: 0x1000103C0, symSize: 0x2C }
  - { offsetInCU: 0x1B411, offset: 0x1B411, size: 0x8, addend: 0x0, symName: __ZN16BinarySearchTreeINSt3__14pairINS0_12basic_stringIcNS0_11char_traitsIcEENS0_9allocatorIcEEEEdEEN3MapIS7_dNS0_4lessIS7_EEE8PairCompEE4NodeD2Ev, symObjAddr: 0xD878, symBinAddr: 0x1000103EC, symSize: 0x2C }
  - { offsetInCU: 0x1B43D, offset: 0x1B43D, size: 0x8, addend: 0x0, symName: __ZN18TestSuiteDestroyerD2Ev, symObjAddr: 0xD8A4, symBinAddr: 0x100010418, symSize: 0x58 }
  - { offsetInCU: 0x1B467, offset: 0x1B467, size: 0x8, addend: 0x0, symName: __ZN9TestSuiteD1Ev, symObjAddr: 0xD8FC, symBinAddr: 0x100010470, symSize: 0x2C }
  - { offsetInCU: 0x1B491, offset: 0x1B491, size: 0x8, addend: 0x0, symName: __ZN9TestSuiteD2Ev, symObjAddr: 0xD928, symBinAddr: 0x10001049C, symSize: 0x2C }
  - { offsetInCU: 0x1B4BB, offset: 0x1B4BB, size: 0x8, addend: 0x0, symName: __ZNSt3__16__treeINS_12__value_typeINS_12basic_stringIcNS_11char_traitsIcEENS_9allocatorIcEEEE8TestCaseEENS_19__map_value_compareIS7_S9_NS_4lessIS7_EELb1EEENS5_IS9_EEE5beginB7v160006Ev, symObjAddr: 0xD954, symBinAddr: 0x1000104C8, symSize: 0x34 }
  - { offsetInCU: 0x1B4E1, offset: 0x1B4E1, size: 0x8, addend: 0x0, symName: __ZNSt3__115__tree_iteratorINS_12__value_typeINS_12basic_stringIcNS_11char_traitsIcEENS_9allocatorIcEEEE8TestCaseEEPNS_11__tree_nodeIS9_PvEElEC1B7v160006EPNS_15__tree_end_nodeIPNS_16__tree_node_baseISB_EEEE, symObjAddr: 0xD988, symBinAddr: 0x1000104FC, symSize: 0x34 }
  - { offsetInCU: 0x1B51A, offset: 0x1B51A, size: 0x8, addend: 0x0, symName: __ZNSt3__115__tree_iteratorINS_12__value_typeINS_12basic_stringIcNS_11char_traitsIcEENS_9allocatorIcEEEE8TestCaseEEPNS_11__tree_nodeIS9_PvEElEC2B7v160006EPNS_15__tree_end_nodeIPNS_16__tree_node_baseISB_EEEE, symObjAddr: 0xD9BC, symBinAddr: 0x100010530, symSize: 0x20 }
  - { offsetInCU: 0x1B553, offset: 0x1B553, size: 0x8, addend: 0x0, symName: __ZNSt3__16__treeINS_12__value_typeINS_12basic_stringIcNS_11char_traitsIcEENS_9allocatorIcEEEE8TestCaseEENS_19__map_value_compareIS7_S9_NS_4lessIS7_EELb1EEENS5_IS9_EEE3endB7v160006Ev, symObjAddr: 0xD9DC, symBinAddr: 0x100010550, symSize: 0x34 }
  - { offsetInCU: 0x1B592, offset: 0x1B592, size: 0x8, addend: 0x0, symName: __ZNKSt3__113basic_ostreamIcNS_11char_traitsIcEEE6sentrycvbB7v160006Ev, symObjAddr: 0xDBFC, symBinAddr: 0x100010770, symSize: 0x1C }
  - { offsetInCU: 0x1B5B8, offset: 0x1B5B8, size: 0x8, addend: 0x0, symName: __ZNSt3__119ostreambuf_iteratorIcNS_11char_traitsIcEEEC1B7v160006ERNS_13basic_ostreamIcS2_EE, symObjAddr: 0xDE58, symBinAddr: 0x1000109CC, symSize: 0x34 }
  - { offsetInCU: 0x1B5F0, offset: 0x1B5F0, size: 0x8, addend: 0x0, symName: __ZNKSt3__18ios_base5flagsB7v160006Ev, symObjAddr: 0xDE8C, symBinAddr: 0x100010A00, symSize: 0x18 }
  - { offsetInCU: 0x1B618, offset: 0x1B618, size: 0x8, addend: 0x0, symName: __ZNKSt3__19basic_iosIcNS_11char_traitsIcEEE4fillB7v160006Ev, symObjAddr: 0xDEA4, symBinAddr: 0x100010A18, symSize: 0x64 }
  - { offsetInCU: 0x1B640, offset: 0x1B640, size: 0x8, addend: 0x0, symName: __ZNKSt3__119ostreambuf_iteratorIcNS_11char_traitsIcEEE6failedB7v160006Ev, symObjAddr: 0xDF08, symBinAddr: 0x100010A7C, symSize: 0x24 }
  - { offsetInCU: 0x1B666, offset: 0x1B666, size: 0x8, addend: 0x0, symName: __ZNSt3__19basic_iosIcNS_11char_traitsIcEEE8setstateB7v160006Ej, symObjAddr: 0xDF2C, symBinAddr: 0x100010AA0, symSize: 0x2C }
  - { offsetInCU: 0x1B69B, offset: 0x1B69B, size: 0x8, addend: 0x0, symName: __ZNKSt3__18ios_base5widthB7v160006Ev, symObjAddr: 0xDF58, symBinAddr: 0x100010ACC, symSize: 0x18 }
  - { offsetInCU: 0x1B6C3, offset: 0x1B6C3, size: 0x8, addend: 0x0, symName: __ZNSt3__115basic_streambufIcNS_11char_traitsIcEEE5sputnB7v160006EPKcl, symObjAddr: 0xDF70, symBinAddr: 0x100010AE4, symSize: 0x3C }
  - { offsetInCU: 0x1B705, offset: 0x1B705, size: 0x8, addend: 0x0, symName: __ZNSt3__112basic_stringIcNS_11char_traitsIcEENS_9allocatorIcEEEC1B7v160006Emc, symObjAddr: 0xDFAC, symBinAddr: 0x100010B20, symSize: 0x3C }
  - { offsetInCU: 0x1B74D, offset: 0x1B74D, size: 0x8, addend: 0x0, symName: __ZNSt3__112basic_stringIcNS_11char_traitsIcEENS_9allocatorIcEEE4dataB7v160006Ev, symObjAddr: 0xDFE8, symBinAddr: 0x100010B5C, symSize: 0x28 }
  - { offsetInCU: 0x1B773, offset: 0x1B773, size: 0x8, addend: 0x0, symName: __ZNSt3__18ios_base5widthB7v160006El, symObjAddr: 0xE010, symBinAddr: 0x100010B84, symSize: 0x2C }
  - { offsetInCU: 0x1B7B9, offset: 0x1B7B9, size: 0x8, addend: 0x0, symName: __ZNSt3__112basic_stringIcNS_11char_traitsIcEENS_9allocatorIcEEEC2B7v160006Emc, symObjAddr: 0xE03C, symBinAddr: 0x100010BB0, symSize: 0x54 }
  - { offsetInCU: 0x1B801, offset: 0x1B801, size: 0x8, addend: 0x0, symName: __ZNSt3__112basic_stringIcNS_11char_traitsIcEENS_9allocatorIcEEE13__get_pointerB7v160006Ev, symObjAddr: 0xE0A4, symBinAddr: 0x100010C18, symSize: 0x54 }
  - { offsetInCU: 0x1B827, offset: 0x1B827, size: 0x8, addend: 0x0, symName: __ZNSt3__112basic_stringIcNS_11char_traitsIcEENS_9allocatorIcEEE18__get_long_pointerB7v160006Ev, symObjAddr: 0xE0F8, symBinAddr: 0x100010C6C, symSize: 0x28 }
  - { offsetInCU: 0x1B84D, offset: 0x1B84D, size: 0x8, addend: 0x0, symName: __ZNSt3__112basic_stringIcNS_11char_traitsIcEENS_9allocatorIcEEE19__get_short_pointerB7v160006Ev, symObjAddr: 0xE120, symBinAddr: 0x100010C94, symSize: 0x28 }
  - { offsetInCU: 0x1B873, offset: 0x1B873, size: 0x8, addend: 0x0, symName: __ZNSt3__114pointer_traitsIPcE10pointer_toB7v160006ERc, symObjAddr: 0xE148, symBinAddr: 0x100010CBC, symSize: 0x14 }
  - { offsetInCU: 0x1B896, offset: 0x1B896, size: 0x8, addend: 0x0, symName: __ZNSt3__119ostreambuf_iteratorIcNS_11char_traitsIcEEEC2B7v160006ERNS_13basic_ostreamIcS2_EE, symObjAddr: 0xE15C, symBinAddr: 0x100010CD0, symSize: 0x54 }
  - { offsetInCU: 0x1B8CE, offset: 0x1B8CE, size: 0x8, addend: 0x0, symName: __ZNKSt3__19basic_iosIcNS_11char_traitsIcEEE5rdbufB7v160006Ev, symObjAddr: 0xE1B0, symBinAddr: 0x100010D24, symSize: 0x24 }
  - { offsetInCU: 0x1B8F6, offset: 0x1B8F6, size: 0x8, addend: 0x0, symName: __ZNKSt3__18ios_base5rdbufB7v160006Ev, symObjAddr: 0xE1D4, symBinAddr: 0x100010D48, symSize: 0x18 }
  - { offsetInCU: 0x1B91C, offset: 0x1B91C, size: 0x8, addend: 0x0, symName: __ZNSt3__111char_traitsIcE11eq_int_typeEii, symObjAddr: 0xE1EC, symBinAddr: 0x100010D60, symSize: 0x28 }
  - { offsetInCU: 0x1B94D, offset: 0x1B94D, size: 0x8, addend: 0x0, symName: __ZNSt3__111char_traitsIcE3eofEv, symObjAddr: 0xE214, symBinAddr: 0x100010D88, symSize: 0x8 }
  - { offsetInCU: 0x1B961, offset: 0x1B961, size: 0x8, addend: 0x0, symName: __ZNKSt3__19basic_iosIcNS_11char_traitsIcEEE5widenB7v160006Ec, symObjAddr: 0xE21C, symBinAddr: 0x100010D90, symSize: 0x84 }
  - { offsetInCU: 0x1B9CF, offset: 0x1B9CF, size: 0x8, addend: 0x0, symName: __ZNKSt3__15ctypeIcE5widenB7v160006Ec, symObjAddr: 0xE2CC, symBinAddr: 0x100010E40, symSize: 0x38 }
  - { offsetInCU: 0x1BA04, offset: 0x1BA04, size: 0x8, addend: 0x0, symName: __ZNSt3__18ios_base8setstateB7v160006Ej, symObjAddr: 0xE304, symBinAddr: 0x100010E78, symSize: 0x34 }
  - { offsetInCU: 0x1BA3B, offset: 0x1BA3B, size: 0x8, addend: 0x0, symName: __ZNSt3__19basic_iosIcNS_11char_traitsIcEEEC2B7v160006Ev, symObjAddr: 0xE338, symBinAddr: 0x100010EAC, symSize: 0x44 }
  - { offsetInCU: 0x1BA65, offset: 0x1BA65, size: 0x8, addend: 0x0, symName: __ZNSt3__113basic_ostreamIcNS_11char_traitsIcEEEC2B7v160006EPNS_15basic_streambufIcS2_EE, symObjAddr: 0xE37C, symBinAddr: 0x100010EF0, symSize: 0x60 }
  - { offsetInCU: 0x1BAAA, offset: 0x1BAAA, size: 0x8, addend: 0x0, symName: __ZNSt3__115basic_stringbufIcNS_11char_traitsIcEENS_9allocatorIcEEEC1B7v160006Ej, symObjAddr: 0xE3DC, symBinAddr: 0x100010F50, symSize: 0x34 }
  - { offsetInCU: 0x1BAE2, offset: 0x1BAE2, size: 0x8, addend: 0x0, symName: __ZNSt3__18ios_baseC2B7v160006Ev, symObjAddr: 0xE410, symBinAddr: 0x100010F84, symSize: 0x24 }
  - { offsetInCU: 0x1BB0C, offset: 0x1BB0C, size: 0x8, addend: 0x0, symName: __ZNSt3__19basic_iosIcNS_11char_traitsIcEEE4initB7v160006EPNS_15basic_streambufIcS2_EE, symObjAddr: 0xE434, symBinAddr: 0x100010FA8, symSize: 0x44 }
  - { offsetInCU: 0x1BB43, offset: 0x1BB43, size: 0x8, addend: 0x0, symName: __ZNSt3__115basic_stringbufIcNS_11char_traitsIcEENS_9allocatorIcEEEC2B7v160006Ej, symObjAddr: 0xE478, symBinAddr: 0x100010FEC, symSize: 0x60 }
  - { offsetInCU: 0x1BB7B, offset: 0x1BB7B, size: 0x8, addend: 0x0, symName: __ZNSt3__112basic_stringIcNS_11char_traitsIcEENS_9allocatorIcEEE13__move_assignB7v160006ERS5_NS_17integral_constantIbLb1EEE, symObjAddr: 0xE4D8, symBinAddr: 0x10001104C, symSize: 0xC8 }
  - { offsetInCU: 0x1BBBD, offset: 0x1BBBD, size: 0x8, addend: 0x0, symName: __ZNSt3__116allocator_traitsINS_9allocatorIcEEE10deallocateB7v160006ERS2_Pcm, symObjAddr: 0xE5A0, symBinAddr: 0x100011114, symSize: 0x34 }
  - { offsetInCU: 0x1BBFF, offset: 0x1BBFF, size: 0x8, addend: 0x0, symName: __ZNSt3__112basic_stringIcNS_11char_traitsIcEENS_9allocatorIcEEE7__allocB7v160006Ev, symObjAddr: 0xE5D4, symBinAddr: 0x100011148, symSize: 0x24 }
  - { offsetInCU: 0x1BC25, offset: 0x1BC25, size: 0x8, addend: 0x0, symName: __ZNKSt3__112basic_stringIcNS_11char_traitsIcEENS_9allocatorIcEEE14__get_long_capB7v160006Ev, symObjAddr: 0xE5F8, symBinAddr: 0x10001116C, symSize: 0x30 }
  - { offsetInCU: 0x1BC4B, offset: 0x1BC4B, size: 0x8, addend: 0x0, symName: __ZNSt3__112basic_stringIcNS_11char_traitsIcEENS_9allocatorIcEEE19__move_assign_allocB7v160006ERS5_, symObjAddr: 0xE628, symBinAddr: 0x10001119C, symSize: 0x2C }
  - { offsetInCU: 0x1BC80, offset: 0x1BC80, size: 0x8, addend: 0x0, symName: __ZNSt3__112basic_stringIcNS_11char_traitsIcEENS_9allocatorIcEEE16__set_short_sizeB7v160006Em, symObjAddr: 0xE654, symBinAddr: 0x1000111C8, symSize: 0x78 }
  - { offsetInCU: 0x1BCB5, offset: 0x1BCB5, size: 0x8, addend: 0x0, symName: __ZNSt3__111char_traitsIcE6assignERcRKc, symObjAddr: 0xE6CC, symBinAddr: 0x100011240, symSize: 0x24 }
  - { offsetInCU: 0x1BCE6, offset: 0x1BCE6, size: 0x8, addend: 0x0, symName: __ZNSt3__19allocatorIcE10deallocateB7v160006EPcm, symObjAddr: 0xE6F0, symBinAddr: 0x100011264, symSize: 0x40 }
  - { offsetInCU: 0x1BD28, offset: 0x1BD28, size: 0x8, addend: 0x0, symName: __ZNSt3__117__compressed_pairINS_12basic_stringIcNS_11char_traitsIcEENS_9allocatorIcEEE5__repES5_E6secondB7v160006Ev, symObjAddr: 0xE730, symBinAddr: 0x1000112A4, symSize: 0x24 }
  - { offsetInCU: 0x1BD4E, offset: 0x1BD4E, size: 0x8, addend: 0x0, symName: __ZNSt3__122__compressed_pair_elemINS_9allocatorIcEELi1ELb1EE5__getB7v160006Ev, symObjAddr: 0xE754, symBinAddr: 0x1000112C8, symSize: 0x14 }
  - { offsetInCU: 0x1BD74, offset: 0x1BD74, size: 0x8, addend: 0x0, symName: __ZNSt3__112basic_stringIcNS_11char_traitsIcEENS_9allocatorIcEEE19__move_assign_allocB7v160006ERS5_NS_17integral_constantIbLb1EEE, symObjAddr: 0xE768, symBinAddr: 0x1000112DC, symSize: 0x38 }
  - { offsetInCU: 0x1BDB4, offset: 0x1BDB4, size: 0x8, addend: 0x0, symName: __ZNSt3__16vectorINS_12basic_stringIcNS_11char_traitsIcEENS_9allocatorIcEEEENS4_IS6_EEEC2B7v160006Ev, symObjAddr: 0xE7A0, symBinAddr: 0x100011314, symSize: 0x54 }
  - { offsetInCU: 0x1BDDE, offset: 0x1BDDE, size: 0x8, addend: 0x0, symName: __ZNSt3__16vectorINS_12basic_stringIcNS_11char_traitsIcEENS_9allocatorIcEEEENS4_IS6_EEED2B7v160006Ev, symObjAddr: 0xE7F4, symBinAddr: 0x100011368, symSize: 0x44 }
  - { offsetInCU: 0x1BE08, offset: 0x1BE08, size: 0x8, addend: 0x0, symName: __ZNSt3__16vectorINS_12basic_stringIcNS_11char_traitsIcEENS_9allocatorIcEEEENS4_IS6_EEE13__move_assignERS8_NS_17integral_constantIbLb1EEE, symObjAddr: 0xE838, symBinAddr: 0x1000113AC, symSize: 0xAC }
  - { offsetInCU: 0x1BE4A, offset: 0x1BE4A, size: 0x8, addend: 0x0, symName: __ZNSt3__16vectorINS_12basic_stringIcNS_11char_traitsIcEENS_9allocatorIcEEEENS4_IS6_EEE13__vdeallocateEv, symObjAddr: 0xE8E4, symBinAddr: 0x100011458, symSize: 0x8C }
  - { offsetInCU: 0x1BE72, offset: 0x1BE72, size: 0x8, addend: 0x0, symName: __ZNSt3__16vectorINS_12basic_stringIcNS_11char_traitsIcEENS_9allocatorIcEEEENS4_IS6_EEE19__move_assign_allocB7v160006ERS8_, symObjAddr: 0xE970, symBinAddr: 0x1000114E4, symSize: 0x2C }
  - { offsetInCU: 0x1BEA7, offset: 0x1BEA7, size: 0x8, addend: 0x0, symName: __ZNSt3__16vectorINS_12basic_stringIcNS_11char_traitsIcEENS_9allocatorIcEEEENS4_IS6_EEE5clearB7v160006Ev, symObjAddr: 0xE9B0, symBinAddr: 0x100011524, symSize: 0x4C }
  - { offsetInCU: 0x1BEDC, offset: 0x1BEDC, size: 0x8, addend: 0x0, symName: __ZNKSt3__16vectorINS_12basic_stringIcNS_11char_traitsIcEENS_9allocatorIcEEEENS4_IS6_EEE17__annotate_shrinkB7v160006Em, symObjAddr: 0xE9FC, symBinAddr: 0x100011570, symSize: 0xD0 }
  - { offsetInCU: 0x1BF11, offset: 0x1BF11, size: 0x8, addend: 0x0, symName: __ZNSt3__16vectorINS_12basic_stringIcNS_11char_traitsIcEENS_9allocatorIcEEEENS4_IS6_EEE19__move_assign_allocB7v160006ERS8_NS_17integral_constantIbLb1EEE, symObjAddr: 0xEACC, symBinAddr: 0x100011640, symSize: 0x38 }
  - { offsetInCU: 0x1BF51, offset: 0x1BF51, size: 0x8, addend: 0x0, symName: __ZNSt3__16vectorINS_12basic_stringIcNS_11char_traitsIcEENS_9allocatorIcEEEENS4_IS6_EEE11__make_iterB7v160006EPS6_, symObjAddr: 0xEB04, symBinAddr: 0x100011678, symSize: 0x34 }
  - { offsetInCU: 0x1BF86, offset: 0x1BF86, size: 0x8, addend: 0x0, symName: __ZNSt3__111__wrap_iterIPNS_12basic_stringIcNS_11char_traitsIcEENS_9allocatorIcEEEEEC1B7v160006EPKvS7_, symObjAddr: 0xEB38, symBinAddr: 0x1000116AC, symSize: 0x3C }
  - { offsetInCU: 0x1BFCC, offset: 0x1BFCC, size: 0x8, addend: 0x0, symName: __ZNSt3__111__wrap_iterIPNS_12basic_stringIcNS_11char_traitsIcEENS_9allocatorIcEEEEEC2B7v160006EPKvS7_, symObjAddr: 0xEB74, symBinAddr: 0x1000116E8, symSize: 0x24 }
  - { offsetInCU: 0x1C012, offset: 0x1C012, size: 0x8, addend: 0x0, symName: __ZNSt3__16__treeINS_12__value_typeINS_12basic_stringIcNS_11char_traitsIcEENS_9allocatorIcEEEE8TestCaseEENS_19__map_value_compareIS7_S9_NS_4lessIS7_EELb1EEENS5_IS9_EEE4findIS7_EENS_15__tree_iteratorIS9_PNS_11__tree_nodeIS9_PvEElEERKT_, symObjAddr: 0xEB98, symBinAddr: 0x10001170C, symSize: 0xF8 }
  - { offsetInCU: 0x1C061, offset: 0x1C061, size: 0x8, addend: 0x0, symName: __ZNSt3__16__treeINS_12__value_typeINS_12basic_stringIcNS_11char_traitsIcEENS_9allocatorIcEEEE8TestCaseEENS_19__map_value_compareIS7_S9_NS_4lessIS7_EELb1EEENS5_IS9_EEE13__lower_boundIS7_EENS_15__tree_iteratorIS9_PNS_11__tree_nodeIS9_PvEElEERKT_SL_PNS_15__tree_end_nodeIPNS_16__tree_node_baseISJ_EEEE, symObjAddr: 0xEC90, symBinAddr: 0x100011804, symSize: 0xA4 }
  - { offsetInCU: 0x1C0BF, offset: 0x1C0BF, size: 0x8, addend: 0x0, symName: __ZNKSt3__115__tree_iteratorINS_12__value_typeINS_12basic_stringIcNS_11char_traitsIcEENS_9allocatorIcEEEE8TestCaseEEPNS_11__tree_nodeIS9_PvEElEdeB7v160006Ev, symObjAddr: 0xED34, symBinAddr: 0x1000118A8, symSize: 0x28 }
  - { offsetInCU: 0x1C0E5, offset: 0x1C0E5, size: 0x8, addend: 0x0, symName: __ZNSt12out_of_rangeC1B7v160006EPKc, symObjAddr: 0xEDC0, symBinAddr: 0x100011934, symSize: 0x34 }
  - { offsetInCU: 0x1C11D, offset: 0x1C11D, size: 0x8, addend: 0x0, symName: __ZNSt12out_of_rangeC2B7v160006EPKc, symObjAddr: 0xEDF4, symBinAddr: 0x100011968, symSize: 0x4C }
  - { offsetInCU: 0x1C179, offset: 0x1C179, size: 0x8, addend: 0x0, symName: '__ZZN9TestSuite9run_testsEiPPcENK3$_0clENSt3__14pairINS3_12basic_stringIcNS3_11char_traitsIcEENS3_9allocatorIcEEEE8TestCaseEE', symObjAddr: 0xEE40, symBinAddr: 0x1000119B4, symSize: 0x30 }
  - { offsetInCU: 0x1C1B3, offset: 0x1C1B3, size: 0x8, addend: 0x0, symName: __ZNSt3__14pairINS_12basic_stringIcNS_11char_traitsIcEENS_9allocatorIcEEEE8TestCaseEC1B7v160006IRNS0_IKS6_S7_EELPv0EEEOT_, symObjAddr: 0xEE70, symBinAddr: 0x1000119E4, symSize: 0x34 }
  - { offsetInCU: 0x1C1FB, offset: 0x1C1FB, size: 0x8, addend: 0x0, symName: __ZNSt3__14pairINS_12basic_stringIcNS_11char_traitsIcEENS_9allocatorIcEEEE8TestCaseED1Ev, symObjAddr: 0xEEA4, symBinAddr: 0x100011A18, symSize: 0x2C }
  - { offsetInCU: 0x1C227, offset: 0x1C227, size: 0x8, addend: 0x0, symName: __ZNSt3__14pairINS_12basic_stringIcNS_11char_traitsIcEENS_9allocatorIcEEEE8TestCaseEC2B7v160006IRNS0_IKS6_S7_EELPv0EEEOT_, symObjAddr: 0xEED0, symBinAddr: 0x100011A44, symSize: 0x80 }
  - { offsetInCU: 0x1C279, offset: 0x1C279, size: 0x8, addend: 0x0, symName: __ZN8TestCaseC1ERKS_, symObjAddr: 0xEF98, symBinAddr: 0x100011B0C, symSize: 0x34 }
  - { offsetInCU: 0x1C2AE, offset: 0x1C2AE, size: 0x8, addend: 0x0, symName: __ZNSt3__110__get_pairILm0EE3getB7v160006IKNS_12basic_stringIcNS_11char_traitsIcEENS_9allocatorIcEEEE8TestCaseEERT_RNS_4pairISB_T0_EE, symObjAddr: 0xEFCC, symBinAddr: 0x100011B40, symSize: 0x14 }
  - { offsetInCU: 0x1C2E9, offset: 0x1C2E9, size: 0x8, addend: 0x0, symName: __ZNSt3__110__get_pairILm1EE3getB7v160006IKNS_12basic_stringIcNS_11char_traitsIcEENS_9allocatorIcEEEE8TestCaseEERT0_RNS_4pairIT_SB_EE, symObjAddr: 0xEFE0, symBinAddr: 0x100011B54, symSize: 0x18 }
  - { offsetInCU: 0x1C31F, offset: 0x1C31F, size: 0x8, addend: 0x0, symName: __ZN8TestCaseC2ERKS_, symObjAddr: 0xEFF8, symBinAddr: 0x100011B6C, symSize: 0xB4 }
  - { offsetInCU: 0x1C354, offset: 0x1C354, size: 0x8, addend: 0x0, symName: __ZNSt3__14pairINS_12basic_stringIcNS_11char_traitsIcEENS_9allocatorIcEEEE8TestCaseED2Ev, symObjAddr: 0xF0AC, symBinAddr: 0x100011C20, symSize: 0x38 }
  - { offsetInCU: 0x1C38A, offset: 0x1C38A, size: 0x8, addend: 0x0, symName: '__ZZN9TestSuite9run_testsEiPPcENK3$_1clENSt3__14pairINS3_12basic_stringIcNS3_11char_traitsIcEENS3_9allocatorIcEEEE8TestCaseEE', symObjAddr: 0xF0E4, symBinAddr: 0x100011C58, symSize: 0x30 }
  - { offsetInCU: 0x1C3C4, offset: 0x1C3C4, size: 0x8, addend: 0x0, symName: __ZNSt3__112basic_stringIcNS_11char_traitsIcEENS_9allocatorIcEEEC2B7v160006IDnEEPKc, symObjAddr: 0xF114, symBinAddr: 0x100011C88, symSize: 0x60 }
  - { offsetInCU: 0x1C402, offset: 0x1C402, size: 0x8, addend: 0x0, symName: __ZNSt3__16vectorINS_12basic_stringIcNS_11char_traitsIcEENS_9allocatorIcEEEENS4_IS6_EEE22__construct_one_at_endB7v160006IJS6_EEEvDpOT_, symObjAddr: 0xF174, symBinAddr: 0x100011CE8, symSize: 0x90 }
  - { offsetInCU: 0x1C451, offset: 0x1C451, size: 0x8, addend: 0x0, symName: __ZNSt3__16vectorINS_12basic_stringIcNS_11char_traitsIcEENS_9allocatorIcEEEENS4_IS6_EEE21__push_back_slow_pathIS6_EEvOT_, symObjAddr: 0xF204, symBinAddr: 0x100011D78, symSize: 0xD8 }
  - { offsetInCU: 0x1C4AF, offset: 0x1C4AF, size: 0x8, addend: 0x0, symName: __ZNSt3__120back_insert_iteratorINS_6vectorINS_12basic_stringIcNS_11char_traitsIcEENS_9allocatorIcEEEENS5_IS7_EEEEEC1B7v160006ERS9_, symObjAddr: 0xF2DC, symBinAddr: 0x100011E50, symSize: 0x34 }
  - { offsetInCU: 0x1C4E7, offset: 0x1C4E7, size: 0x8, addend: 0x0, symName: __ZNSt3__120back_insert_iteratorINS_6vectorINS_12basic_stringIcNS_11char_traitsIcEENS_9allocatorIcEEEENS5_IS7_EEEEEC2B7v160006ERS9_, symObjAddr: 0xF310, symBinAddr: 0x100011E84, symSize: 0x20 }
  - { offsetInCU: 0x1C529, offset: 0x1C529, size: 0x8, addend: 0x0, symName: '__ZZN9TestSuite21get_test_names_to_runEiPPcENK3$_2clERKNSt3__14pairINS3_12basic_stringIcNS3_11char_traitsIcEENS3_9allocatorIcEEEE8TestCaseEE', symObjAddr: 0xF330, symBinAddr: 0x100011EA4, symSize: 0x3C }
  - { offsetInCU: 0x1C562, offset: 0x1C562, size: 0x8, addend: 0x0, symName: __ZNSt3__120back_insert_iteratorINS_6vectorINS_12basic_stringIcNS_11char_traitsIcEENS_9allocatorIcEEEENS5_IS7_EEEEEdeB7v160006Ev, symObjAddr: 0xF36C, symBinAddr: 0x100011EE0, symSize: 0x14 }
  - { offsetInCU: 0x1C588, offset: 0x1C588, size: 0x8, addend: 0x0, symName: __ZNSt3__120back_insert_iteratorINS_6vectorINS_12basic_stringIcNS_11char_traitsIcEENS_9allocatorIcEEEENS5_IS7_EEEEEaSB7v160006EOS7_, symObjAddr: 0xF380, symBinAddr: 0x100011EF4, symSize: 0x38 }
  - { offsetInCU: 0x1C5BC, offset: 0x1C5BC, size: 0x8, addend: 0x0, symName: __ZNSt3__120back_insert_iteratorINS_6vectorINS_12basic_stringIcNS_11char_traitsIcEENS_9allocatorIcEEEENS5_IS7_EEEEEppB7v160006Ev, symObjAddr: 0xF3B8, symBinAddr: 0x100011F2C, symSize: 0x14 }
...
